ARM GAS  C:\Users\noemi\AppData\Local\Temp\ccb3u299.s 			page 1


   1              		.syntax unified
   2              		.cpu cortex-m3
   3              		.fpu softvfp
   4              		.eabi_attribute 20, 1
   5              		.eabi_attribute 21, 1
   6              		.eabi_attribute 23, 3
   7              		.eabi_attribute 24, 1
   8              		.eabi_attribute 25, 1
   9              		.eabi_attribute 26, 1
  10              		.eabi_attribute 30, 1
  11              		.eabi_attribute 34, 1
  12              		.eabi_attribute 18, 4
  13              		.thumb
  14              		.syntax unified
  15              		.file	"25LC256.c"
  16              		.text
  17              	.Ltext0:
  18              		.cfi_sections	.debug_frame
  19              		.section	.text.EEPROM_readStatus,"ax",%progbits
  20              		.align	2
  21              		.global	EEPROM_readStatus
  22              		.thumb
  23              		.thumb_func
  24              		.type	EEPROM_readStatus, %function
  25              	EEPROM_readStatus:
  26              	.LFB0:
  27              		.file 1 "25LC256.c"
   1:25LC256.c     **** /**
   2:25LC256.c     ****  * @file 25LC256.c
   3:25LC256.c     ****  * @brief Functions required to interface with the SPI EEPROM 25LC256.
   4:25LC256.c     ****  * 
   5:25LC256.c     ****  * This c file contains the API functions to interface
   6:25LC256.c     ****  * with the SPI EEPROM 25LC256.
   7:25LC256.c     ****  *
   8:25LC256.c     ****  * @author Mattia Pesenti
   9:25LC256.c     ****  * @date 24 March, 2020
  10:25LC256.c     **** */
  11:25LC256.c     **** 
  12:25LC256.c     **** #include "25LC256.h"
  13:25LC256.c     **** #define EEPROM_CS 2
  14:25LC256.c     **** uint8_t eeprom_Status;
  15:25LC256.c     **** 
  16:25LC256.c     **** /** ====== Helper Functions ====== **/
  17:25LC256.c     **** 
  18:25LC256.c     **** uint8_t EEPROM_readStatus() {
  28              		.loc 1 18 0
  29              		.cfi_startproc
  30              		@ args = 0, pretend = 0, frame = 0
  31              		@ frame_needed = 0, uses_anonymous_args = 0
  32 0000 08B5     		push	{r3, lr}
  33              		.cfi_def_cfa_offset 8
  34              		.cfi_offset 3, -8
  35              		.cfi_offset 14, -4
  19:25LC256.c     ****     
  20:25LC256.c     **** 	return SPI_Interface_ReadByte(SPI_EEPROM_RDSR, EEPROM_CS);
  36              		.loc 1 20 0
  37 0002 0221     		movs	r1, #2
ARM GAS  C:\Users\noemi\AppData\Local\Temp\ccb3u299.s 			page 2


  38 0004 0520     		movs	r0, #5
  39 0006 FFF7FEFF 		bl	SPI_Interface_ReadByte
  40              	.LVL0:
  21:25LC256.c     ****     
  22:25LC256.c     **** }
  41              		.loc 1 22 0
  42 000a 08BD     		pop	{r3, pc}
  43              		.cfi_endproc
  44              	.LFE0:
  45              		.size	EEPROM_readStatus, .-EEPROM_readStatus
  46              		.section	.text.EEPROM_writeEnable,"ax",%progbits
  47              		.align	2
  48              		.global	EEPROM_writeEnable
  49              		.thumb
  50              		.thumb_func
  51              		.type	EEPROM_writeEnable, %function
  52              	EEPROM_writeEnable:
  53              	.LFB1:
  23:25LC256.c     **** 
  24:25LC256.c     **** void EEPROM_writeEnable() {
  54              		.loc 1 24 0
  55              		.cfi_startproc
  56              		@ args = 0, pretend = 0, frame = 0
  57              		@ frame_needed = 0, uses_anonymous_args = 0
  58 0000 08B5     		push	{r3, lr}
  59              		.cfi_def_cfa_offset 8
  60              		.cfi_offset 3, -8
  61              		.cfi_offset 14, -4
  25:25LC256.c     ****     
  26:25LC256.c     **** 	/* Send 1-byte Instruction */
  27:25LC256.c     **** 	SPI_Interface_tradeByte(SPI_EEPROM_WREN, EEPROM_CS);
  62              		.loc 1 27 0
  63 0002 0221     		movs	r1, #2
  64 0004 0620     		movs	r0, #6
  65 0006 FFF7FEFF 		bl	SPI_Interface_tradeByte
  66              	.LVL1:
  67 000a 08BD     		pop	{r3, pc}
  68              		.cfi_endproc
  69              	.LFE1:
  70              		.size	EEPROM_writeEnable, .-EEPROM_writeEnable
  71              		.section	.text.EEPROM_readByte,"ax",%progbits
  72              		.align	2
  73              		.global	EEPROM_readByte
  74              		.thumb
  75              		.thumb_func
  76              		.type	EEPROM_readByte, %function
  77              	EEPROM_readByte:
  78              	.LFB2:
  28:25LC256.c     ****     
  29:25LC256.c     **** }
  30:25LC256.c     **** 
  31:25LC256.c     **** /** ====== User-level Functions ====== **/
  32:25LC256.c     **** 
  33:25LC256.c     **** uint8_t EEPROM_readByte(uint16_t addr) {
  79              		.loc 1 33 0
  80              		.cfi_startproc
  81              		@ args = 0, pretend = 0, frame = 8
ARM GAS  C:\Users\noemi\AppData\Local\Temp\ccb3u299.s 			page 3


  82              		@ frame_needed = 0, uses_anonymous_args = 0
  83              	.LVL2:
  84 0000 00B5     		push	{lr}
  85              		.cfi_def_cfa_offset 4
  86              		.cfi_offset 14, -4
  87 0002 85B0     		sub	sp, sp, #20
  88              		.cfi_def_cfa_offset 24
  34:25LC256.c     **** 
  35:25LC256.c     **** 	/* Prepare the TX data packet: instruction + address */
  36:25LC256.c     **** 	uint8_t dataTX[3] = { SPI_EEPROM_READ, ((addr & 0xFF00) >> 8), (addr & 0x00FF) };
  89              		.loc 1 36 0
  90 0004 0321     		movs	r1, #3
  91 0006 8DF80C10 		strb	r1, [sp, #12]
  92 000a 030A     		lsrs	r3, r0, #8
  93 000c 8DF80D30 		strb	r3, [sp, #13]
  94 0010 8DF80E00 		strb	r0, [sp, #14]
  37:25LC256.c     **** 	
  38:25LC256.c     **** 	/* Prepare the RX byte */
  39:25LC256.c     **** 	uint8_t dataRX = 0;
  95              		.loc 1 39 0
  96 0014 04AA     		add	r2, sp, #16
  97 0016 0023     		movs	r3, #0
  98 0018 02F8053D 		strb	r3, [r2, #-5]!
  40:25LC256.c     **** 	
  41:25LC256.c     **** 	/* Read 1 byte from addr */
  42:25LC256.c     **** 	SPI_Interface_Multi_RW(dataTX, 3, &dataRX, 1, EEPROM_CS);
  99              		.loc 1 42 0
 100 001c 0223     		movs	r3, #2
 101 001e 0093     		str	r3, [sp]
 102 0020 0123     		movs	r3, #1
 103 0022 03A8     		add	r0, sp, #12
 104              	.LVL3:
 105 0024 FFF7FEFF 		bl	SPI_Interface_Multi_RW
 106              	.LVL4:
  43:25LC256.c     **** 	
  44:25LC256.c     **** 	return dataRX;
  45:25LC256.c     ****     
  46:25LC256.c     **** }
 107              		.loc 1 46 0
 108 0028 9DF80B00 		ldrb	r0, [sp, #11]	@ zero_extendqisi2
 109 002c 05B0     		add	sp, sp, #20
 110              		.cfi_def_cfa_offset 4
 111              		@ sp needed
 112 002e 5DF804FB 		ldr	pc, [sp], #4
 113              		.cfi_endproc
 114              	.LFE2:
 115              		.size	EEPROM_readByte, .-EEPROM_readByte
 116 0032 00BF     		.section	.text.EEPROM_writeByte,"ax",%progbits
 117              		.align	2
 118              		.global	EEPROM_writeByte
 119              		.thumb
 120              		.thumb_func
 121              		.type	EEPROM_writeByte, %function
 122              	EEPROM_writeByte:
 123              	.LFB3:
  47:25LC256.c     **** 
  48:25LC256.c     **** void EEPROM_writeByte(uint16_t addr, uint8_t dataByte) {
ARM GAS  C:\Users\noemi\AppData\Local\Temp\ccb3u299.s 			page 4


 124              		.loc 1 48 0
 125              		.cfi_startproc
 126              		@ args = 0, pretend = 0, frame = 8
 127              		@ frame_needed = 0, uses_anonymous_args = 0
 128              	.LVL5:
 129 0000 30B5     		push	{r4, r5, lr}
 130              		.cfi_def_cfa_offset 12
 131              		.cfi_offset 4, -12
 132              		.cfi_offset 5, -8
 133              		.cfi_offset 14, -4
 134 0002 85B0     		sub	sp, sp, #20
 135              		.cfi_def_cfa_offset 32
 136 0004 0446     		mov	r4, r0
 137 0006 0D46     		mov	r5, r1
  49:25LC256.c     ****     
  50:25LC256.c     ****     /* Enable WRITE operations */
  51:25LC256.c     ****     EEPROM_writeEnable();
 138              		.loc 1 51 0
 139 0008 FFF7FEFF 		bl	EEPROM_writeEnable
 140              	.LVL6:
  52:25LC256.c     **** 	
  53:25LC256.c     **** 	/* Prepare the TX packet */
  54:25LC256.c     ****     uint8_t dataTX[4] = {SPI_EEPROM_WRITE, ((addr & 0xFF00) >> 8), (addr & 0x00FF), dataByte};
 141              		.loc 1 54 0
 142 000c 0221     		movs	r1, #2
 143 000e 8DF80C10 		strb	r1, [sp, #12]
 144 0012 230A     		lsrs	r3, r4, #8
 145 0014 8DF80D30 		strb	r3, [sp, #13]
 146 0018 8DF80E40 		strb	r4, [sp, #14]
 147 001c 8DF80F50 		strb	r5, [sp, #15]
  55:25LC256.c     **** 	/* Nothing to RX... */
  56:25LC256.c     **** 	uint8_t temp = 0;
 148              		.loc 1 56 0
 149 0020 0023     		movs	r3, #0
 150 0022 04AA     		add	r2, sp, #16
 151 0024 02F8053D 		strb	r3, [r2, #-5]!
  57:25LC256.c     **** 	
  58:25LC256.c     **** 	/* Write 1 byte to addr */
  59:25LC256.c     **** 	SPI_Interface_Multi_RW(dataTX, 4, &temp, 0, EEPROM_CS);
 152              		.loc 1 59 0
 153 0028 0091     		str	r1, [sp]
 154 002a 0421     		movs	r1, #4
 155 002c 03A8     		add	r0, sp, #12
 156 002e FFF7FEFF 		bl	SPI_Interface_Multi_RW
 157              	.LVL7:
  60:25LC256.c     **** 	    
  61:25LC256.c     **** }
 158              		.loc 1 61 0
 159 0032 05B0     		add	sp, sp, #20
 160              		.cfi_def_cfa_offset 12
 161              		@ sp needed
 162 0034 30BD     		pop	{r4, r5, pc}
 163              		.cfi_endproc
 164              	.LFE3:
 165              		.size	EEPROM_writeByte, .-EEPROM_writeByte
 166 0036 00BF     		.section	.text.EEPROM_readPage,"ax",%progbits
 167              		.align	2
ARM GAS  C:\Users\noemi\AppData\Local\Temp\ccb3u299.s 			page 5


 168              		.global	EEPROM_readPage
 169              		.thumb
 170              		.thumb_func
 171              		.type	EEPROM_readPage, %function
 172              	EEPROM_readPage:
 173              	.LFB4:
  62:25LC256.c     **** 
  63:25LC256.c     **** void EEPROM_readPage(uint16_t addr, uint8_t* dataRX, uint8_t nBytes) {
 174              		.loc 1 63 0
 175              		.cfi_startproc
 176              		@ args = 0, pretend = 0, frame = 8
 177              		@ frame_needed = 0, uses_anonymous_args = 0
 178              	.LVL8:
 179 0000 10B5     		push	{r4, lr}
 180              		.cfi_def_cfa_offset 8
 181              		.cfi_offset 4, -8
 182              		.cfi_offset 14, -4
 183 0002 84B0     		sub	sp, sp, #16
 184              		.cfi_def_cfa_offset 24
  64:25LC256.c     ****     
  65:25LC256.c     **** 	/* Prepare the TX data packet: instruction + address */
  66:25LC256.c     **** 	uint8_t dataTX[3] = {SPI_EEPROM_READ, ((addr & 0xFF00) >> 8), (addr & 0x00FF)};
 185              		.loc 1 66 0
 186 0004 0324     		movs	r4, #3
 187 0006 8DF80C40 		strb	r4, [sp, #12]
 188 000a 030A     		lsrs	r3, r0, #8
 189 000c 8DF80D30 		strb	r3, [sp, #13]
 190 0010 8DF80E00 		strb	r0, [sp, #14]
  67:25LC256.c     **** 	
  68:25LC256.c     **** 	/* Read the nBytes */
  69:25LC256.c     **** 	SPI_Interface_Multi_RW(dataTX, 3, dataRX, nBytes, EEPROM_CS);
 191              		.loc 1 69 0
 192 0014 0223     		movs	r3, #2
 193 0016 0093     		str	r3, [sp]
 194 0018 1346     		mov	r3, r2
 195 001a 0A46     		mov	r2, r1
 196              	.LVL9:
 197 001c 2146     		mov	r1, r4
 198              	.LVL10:
 199 001e 03A8     		add	r0, sp, #12
 200              	.LVL11:
 201 0020 FFF7FEFF 		bl	SPI_Interface_Multi_RW
 202              	.LVL12:
  70:25LC256.c     **** 		
  71:25LC256.c     **** }
 203              		.loc 1 71 0
 204 0024 04B0     		add	sp, sp, #16
 205              		.cfi_def_cfa_offset 8
 206              		@ sp needed
 207 0026 10BD     		pop	{r4, pc}
 208              		.cfi_endproc
 209              	.LFE4:
 210              		.size	EEPROM_readPage, .-EEPROM_readPage
 211              		.section	.text.EEPROM_writePage,"ax",%progbits
 212              		.align	2
 213              		.global	EEPROM_writePage
 214              		.thumb
ARM GAS  C:\Users\noemi\AppData\Local\Temp\ccb3u299.s 			page 6


 215              		.thumb_func
 216              		.type	EEPROM_writePage, %function
 217              	EEPROM_writePage:
 218              	.LFB5:
  72:25LC256.c     **** 
  73:25LC256.c     **** void EEPROM_writePage(uint16_t addr, uint8_t* data, uint8_t nBytes) {
 219              		.loc 1 73 0
 220              		.cfi_startproc
 221              		@ args = 0, pretend = 0, frame = 8
 222              		@ frame_needed = 1, uses_anonymous_args = 0
 223              	.LVL13:
 224 0000 2DE9F047 		push	{r4, r5, r6, r7, r8, r9, r10, lr}
 225              		.cfi_def_cfa_offset 32
 226              		.cfi_offset 4, -32
 227              		.cfi_offset 5, -28
 228              		.cfi_offset 6, -24
 229              		.cfi_offset 7, -20
 230              		.cfi_offset 8, -16
 231              		.cfi_offset 9, -12
 232              		.cfi_offset 10, -8
 233              		.cfi_offset 14, -4
 234 0004 84B0     		sub	sp, sp, #16
 235              		.cfi_def_cfa_offset 48
 236 0006 02AF     		add	r7, sp, #8
 237              		.cfi_def_cfa 7, 40
 238 0008 0646     		mov	r6, r0
 239 000a 8946     		mov	r9, r1
 240 000c 1546     		mov	r5, r2
  74:25LC256.c     **** 	    
  75:25LC256.c     ****     /* Enable WRITE operations */
  76:25LC256.c     ****     EEPROM_writeEnable();
 241              		.loc 1 76 0
 242 000e FFF7FEFF 		bl	EEPROM_writeEnable
 243              	.LVL14:
  77:25LC256.c     **** 	
  78:25LC256.c     ****     CyDelayUs(1);
 244              		.loc 1 78 0
 245 0012 0120     		movs	r0, #1
 246 0014 FFF7FEFF 		bl	CyDelayUs
 247              	.LVL15:
  79:25LC256.c     ****     
  80:25LC256.c     **** 	/* Prepare the TX packet of size nBytes+3 
  81:25LC256.c     ****        [ Write Instruction - Address MSB - Address LSB - +++data+++ ]
  82:25LC256.c     ****     */
  83:25LC256.c     **** 	uint8_t dataTX[3+nBytes];
 248              		.loc 1 83 0
 249 0018 05F10308 		add	r8, r5, #3
 250              	.LVL16:
 251 001c 05F10A03 		add	r3, r5, #10
 252 0020 23F00703 		bic	r3, r3, #7
 253 0024 ADEB030D 		sub	sp, sp, r3
 254 0028 02AC     		add	r4, sp, #8
 255              	.LVL17:
  84:25LC256.c     ****     dataTX[0] = SPI_EEPROM_WRITE;
 256              		.loc 1 84 0
 257 002a 4FF0020A 		mov	r10, #2
 258 002e 8DF808A0 		strb	r10, [sp, #8]
ARM GAS  C:\Users\noemi\AppData\Local\Temp\ccb3u299.s 			page 7


  85:25LC256.c     ****     dataTX[1] = (addr & 0xFF00) >> 8;
 259              		.loc 1 85 0
 260 0032 330A     		lsrs	r3, r6, #8
 261 0034 8DF80930 		strb	r3, [sp, #9]
  86:25LC256.c     ****     dataTX[2] = addr & 0x00FF;
 262              		.loc 1 86 0
 263 0038 8DF80A60 		strb	r6, [sp, #10]
  87:25LC256.c     ****     /* Copy the input data in the memory */
  88:25LC256.c     **** 	memcpy(&dataTX[3], data, nBytes);
 264              		.loc 1 88 0
 265 003c 2A46     		mov	r2, r5
 266 003e 4946     		mov	r1, r9
 267 0040 0DF10B00 		add	r0, sp, #11
 268 0044 FFF7FEFF 		bl	memcpy
 269              	.LVL18:
  89:25LC256.c     **** 	
  90:25LC256.c     **** 	/* Nothing to RX: point to a dummy variable */
  91:25LC256.c     **** 	uint8_t temp = 0;
 270              		.loc 1 91 0
 271 0048 0023     		movs	r3, #0
 272 004a 07F10802 		add	r2, r7, #8
 273 004e 02F8013D 		strb	r3, [r2, #-1]!
  92:25LC256.c     **** 	
  93:25LC256.c     **** 	SPI_Interface_Multi_RW(dataTX, 3+nBytes, &temp, 0, EEPROM_CS);
 274              		.loc 1 93 0
 275 0052 CDF800A0 		str	r10, [sp]
 276 0056 5FFA88F1 		uxtb	r1, r8
 277 005a 2046     		mov	r0, r4
 278 005c FFF7FEFF 		bl	SPI_Interface_Multi_RW
 279              	.LVL19:
  94:25LC256.c     **** 	
  95:25LC256.c     **** }
 280              		.loc 1 95 0
 281 0060 0837     		adds	r7, r7, #8
 282              		.cfi_def_cfa_offset 32
 283 0062 BD46     		mov	sp, r7
 284              		.cfi_def_cfa_register 13
 285              		@ sp needed
 286 0064 BDE8F087 		pop	{r4, r5, r6, r7, r8, r9, r10, pc}
 287              		.cfi_endproc
 288              	.LFE5:
 289              		.size	EEPROM_writePage, .-EEPROM_writePage
 290              		.section	.text.EEPROM_waitForWriteComplete,"ax",%progbits
 291              		.align	2
 292              		.global	EEPROM_waitForWriteComplete
 293              		.thumb
 294              		.thumb_func
 295              		.type	EEPROM_waitForWriteComplete, %function
 296              	EEPROM_waitForWriteComplete:
 297              	.LFB6:
  96:25LC256.c     **** 
  97:25LC256.c     **** void EEPROM_waitForWriteComplete() {
 298              		.loc 1 97 0
 299              		.cfi_startproc
 300              		@ args = 0, pretend = 0, frame = 0
 301              		@ frame_needed = 0, uses_anonymous_args = 0
 302 0000 08B5     		push	{r3, lr}
ARM GAS  C:\Users\noemi\AppData\Local\Temp\ccb3u299.s 			page 8


 303              		.cfi_def_cfa_offset 8
 304              		.cfi_offset 3, -8
 305              		.cfi_offset 14, -4
 306              	.L14:
  98:25LC256.c     ****     
  99:25LC256.c     ****     while( EEPROM_readStatus() & SPI_EEPROM_WRITE_IN_PROGRESS );
 307              		.loc 1 99 0 discriminator 1
 308 0002 FFF7FEFF 		bl	EEPROM_readStatus
 309              	.LVL20:
 310 0006 10F0010F 		tst	r0, #1
 311 000a FAD1     		bne	.L14
 100:25LC256.c     ****     
 101:25LC256.c     **** }
 312              		.loc 1 101 0
 313 000c 08BD     		pop	{r3, pc}
 314              		.cfi_endproc
 315              	.LFE6:
 316              		.size	EEPROM_waitForWriteComplete, .-EEPROM_waitForWriteComplete
 317              		.comm	eeprom_Status,1,1
 318 000e 00BF     		.text
 319              	.Letext0:
 320              		.file 2 "c:\\program files (x86)\\cypress\\psoc creator\\4.3\\psoc creator\\import\\gnu\\arm\\5.4.
 321              		.file 3 "c:\\program files (x86)\\cypress\\psoc creator\\4.3\\psoc creator\\import\\gnu\\arm\\5.4.
 322              		.file 4 "SPI_Interface.h"
 323              		.file 5 "Generated_Source\\PSoC5/CyLib.h"