ARM GAS  C:\Users\noemi\AppData\Local\Temp\ccoSsdXb.s 			page 1


   1              		.syntax unified
   2              		.cpu cortex-m3
   3              		.fpu softvfp
   4              		.eabi_attribute 20, 1
   5              		.eabi_attribute 21, 1
   6              		.eabi_attribute 23, 3
   7              		.eabi_attribute 24, 1
   8              		.eabi_attribute 25, 1
   9              		.eabi_attribute 26, 1
  10              		.eabi_attribute 30, 1
  11              		.eabi_attribute 34, 1
  12              		.eabi_attribute 18, 4
  13              		.thumb
  14              		.syntax unified
  15              		.file	"LIS3DH_SPI.c"
  16              		.text
  17              	.Ltext0:
  18              		.cfi_sections	.debug_frame
  19              		.section	.text.LIS3DH_readByte,"ax",%progbits
  20              		.align	2
  21              		.global	LIS3DH_readByte
  22              		.thumb
  23              		.thumb_func
  24              		.type	LIS3DH_readByte, %function
  25              	LIS3DH_readByte:
  26              	.LFB0:
  27              		.file 1 "LIS3DH_SPI.c"
   1:LIS3DH_SPI.c  **** /* ========================================
   2:LIS3DH_SPI.c  ****  *
   3:LIS3DH_SPI.c  ****  * Copyright YOUR COMPANY, THE YEAR
   4:LIS3DH_SPI.c  ****  * All Rights Reserved
   5:LIS3DH_SPI.c  ****  * UNPUBLISHED, LICENSED SOFTWARE.
   6:LIS3DH_SPI.c  ****  *
   7:LIS3DH_SPI.c  ****  * CONFIDENTIAL AND PROPRIETARY INFORMATION
   8:LIS3DH_SPI.c  ****  * WHICH IS THE PROPERTY OF your company.
   9:LIS3DH_SPI.c  ****  *
  10:LIS3DH_SPI.c  ****  * ========================================
  11:LIS3DH_SPI.c  **** */
  12:LIS3DH_SPI.c  **** #include "LIS3DH_SPI.h"
  13:LIS3DH_SPI.c  **** #include "LIS3DH.h"
  14:LIS3DH_SPI.c  **** 
  15:LIS3DH_SPI.c  **** 
  16:LIS3DH_SPI.c  **** /** ====== User-level Functions ====== **/
  17:LIS3DH_SPI.c  **** 
  18:LIS3DH_SPI.c  **** uint8_t LIS3DH_readByte(uint8_t addr) {
  28              		.loc 1 18 0
  29              		.cfi_startproc
  30              		@ args = 0, pretend = 0, frame = 8
  31              		@ frame_needed = 0, uses_anonymous_args = 0
  32              	.LVL0:
  33 0000 00B5     		push	{lr}
  34              		.cfi_def_cfa_offset 4
  35              		.cfi_offset 14, -4
  36 0002 85B0     		sub	sp, sp, #20
  37              		.cfi_def_cfa_offset 24
  19:LIS3DH_SPI.c  **** 
  20:LIS3DH_SPI.c  **** 	/* Prepare the TX data packet: instruction + address */
ARM GAS  C:\Users\noemi\AppData\Local\Temp\ccoSsdXb.s 			page 2


  21:LIS3DH_SPI.c  **** 
  22:LIS3DH_SPI.c  ****     uint8_t packet[1]={(SPI_LIS3DH_READ)|(addr & address_mask6)};
  38              		.loc 1 22 0
  39 0004 00F03F00 		and	r0, r0, #63
  40              	.LVL1:
  41 0008 60F07F00 		orn	r0, r0, #127
  42 000c 8DF80C00 		strb	r0, [sp, #12]
  23:LIS3DH_SPI.c  ****     
  24:LIS3DH_SPI.c  **** 	
  25:LIS3DH_SPI.c  **** 	
  26:LIS3DH_SPI.c  **** 	/* Prepare the RX byte */
  27:LIS3DH_SPI.c  **** 	uint8_t dataRX=0;
  43              		.loc 1 27 0
  44 0010 04AA     		add	r2, sp, #16
  45 0012 0023     		movs	r3, #0
  46 0014 02F8053D 		strb	r3, [r2, #-5]!
  28:LIS3DH_SPI.c  ****    
  29:LIS3DH_SPI.c  **** 	
  30:LIS3DH_SPI.c  **** 	/* Read 1 byte from addr */
  31:LIS3DH_SPI.c  ****     
  32:LIS3DH_SPI.c  **** 	SPI_Interface_Multi_RW(packet, 1, &dataRX, 1, CS_LIS3DH);
  47              		.loc 1 32 0
  48 0018 0121     		movs	r1, #1
  49 001a 0091     		str	r1, [sp]
  50 001c 0B46     		mov	r3, r1
  51 001e 03A8     		add	r0, sp, #12
  52 0020 FFF7FEFF 		bl	SPI_Interface_Multi_RW
  53              	.LVL2:
  33:LIS3DH_SPI.c  **** 	
  34:LIS3DH_SPI.c  **** 	return dataRX;
  35:LIS3DH_SPI.c  ****     
  36:LIS3DH_SPI.c  **** }
  54              		.loc 1 36 0
  55 0024 9DF80B00 		ldrb	r0, [sp, #11]	@ zero_extendqisi2
  56 0028 05B0     		add	sp, sp, #20
  57              		.cfi_def_cfa_offset 4
  58              		@ sp needed
  59 002a 5DF804FB 		ldr	pc, [sp], #4
  60              		.cfi_endproc
  61              	.LFE0:
  62              		.size	LIS3DH_readByte, .-LIS3DH_readByte
  63 002e 00BF     		.section	.text.LIS3DH_writeByte,"ax",%progbits
  64              		.align	2
  65              		.global	LIS3DH_writeByte
  66              		.thumb
  67              		.thumb_func
  68              		.type	LIS3DH_writeByte, %function
  69              	LIS3DH_writeByte:
  70              	.LFB1:
  37:LIS3DH_SPI.c  **** 
  38:LIS3DH_SPI.c  **** void LIS3DH_writeByte(uint8_t addr, uint8_t dataByte) {
  71              		.loc 1 38 0
  72              		.cfi_startproc
  73              		@ args = 0, pretend = 0, frame = 8
  74              		@ frame_needed = 0, uses_anonymous_args = 0
  75              	.LVL3:
  76 0000 00B5     		push	{lr}
ARM GAS  C:\Users\noemi\AppData\Local\Temp\ccoSsdXb.s 			page 3


  77              		.cfi_def_cfa_offset 4
  78              		.cfi_offset 14, -4
  79 0002 85B0     		sub	sp, sp, #20
  80              		.cfi_def_cfa_offset 24
  39:LIS3DH_SPI.c  ****     
  40:LIS3DH_SPI.c  ****     /* Enable WRITE operations */
  41:LIS3DH_SPI.c  **** //    EEPROM_writeEnable();
  42:LIS3DH_SPI.c  **** 
  43:LIS3DH_SPI.c  **** 	/* Prepare the TX packet */
  44:LIS3DH_SPI.c  ****     uint8_t dataTX[2] = {((SPI_LIS3DH_WRITE)|(addr & address_mask6)), dataByte};
  81              		.loc 1 44 0
  82 0004 00F03F00 		and	r0, r0, #63
  83              	.LVL4:
  84 0008 8DF80C00 		strb	r0, [sp, #12]
  85 000c 8DF80D10 		strb	r1, [sp, #13]
  45:LIS3DH_SPI.c  **** 	/* Nothing to RX... */
  46:LIS3DH_SPI.c  **** 	uint8_t temp = 0;
  86              		.loc 1 46 0
  87 0010 0023     		movs	r3, #0
  88 0012 04AA     		add	r2, sp, #16
  89 0014 02F8053D 		strb	r3, [r2, #-5]!
  47:LIS3DH_SPI.c  **** 	/* Write 1 byte to addr */
  48:LIS3DH_SPI.c  **** 	SPI_Interface_Multi_RW(dataTX, 2, &temp, 0, CS_LIS3DH);
  90              		.loc 1 48 0
  91 0018 0121     		movs	r1, #1
  92              	.LVL5:
  93 001a 0091     		str	r1, [sp]
  94 001c 0221     		movs	r1, #2
  95 001e 03A8     		add	r0, sp, #12
  96 0020 FFF7FEFF 		bl	SPI_Interface_Multi_RW
  97              	.LVL6:
  49:LIS3DH_SPI.c  **** 	    
  50:LIS3DH_SPI.c  **** }
  98              		.loc 1 50 0
  99 0024 05B0     		add	sp, sp, #20
 100              		.cfi_def_cfa_offset 4
 101              		@ sp needed
 102 0026 5DF804FB 		ldr	pc, [sp], #4
 103              		.cfi_endproc
 104              	.LFE1:
 105              		.size	LIS3DH_writeByte, .-LIS3DH_writeByte
 106 002a 00BF     		.section	.text.LIS3DH_readPage,"ax",%progbits
 107              		.align	2
 108              		.global	LIS3DH_readPage
 109              		.thumb
 110              		.thumb_func
 111              		.type	LIS3DH_readPage, %function
 112              	LIS3DH_readPage:
 113              	.LFB2:
  51:LIS3DH_SPI.c  **** 
  52:LIS3DH_SPI.c  **** 
  53:LIS3DH_SPI.c  **** void LIS3DH_readPage(uint8_t addr, uint8_t* dataRX, uint8_t nBytes) {
 114              		.loc 1 53 0
 115              		.cfi_startproc
 116              		@ args = 0, pretend = 0, frame = 8
 117              		@ frame_needed = 0, uses_anonymous_args = 0
 118              	.LVL7:
ARM GAS  C:\Users\noemi\AppData\Local\Temp\ccoSsdXb.s 			page 4


 119 0000 10B5     		push	{r4, lr}
 120              		.cfi_def_cfa_offset 8
 121              		.cfi_offset 4, -8
 122              		.cfi_offset 14, -4
 123 0002 84B0     		sub	sp, sp, #16
 124              		.cfi_def_cfa_offset 24
  54:LIS3DH_SPI.c  ****     
  55:LIS3DH_SPI.c  **** 	/* Prepare the TX data packet: instruction + address */
  56:LIS3DH_SPI.c  ****     uint8_t dataTX[1]={(SPI_LIS3DH_READ)|(SPI_LIS3DH_MS)|(addr & address_mask6)};
 125              		.loc 1 56 0
 126 0004 40F0C003 		orr	r3, r0, #192
 127 0008 04A8     		add	r0, sp, #16
 128              	.LVL8:
 129 000a 00F8043D 		strb	r3, [r0, #-4]!
  57:LIS3DH_SPI.c  ****     
  58:LIS3DH_SPI.c  **** 	
  59:LIS3DH_SPI.c  **** 	
  60:LIS3DH_SPI.c  **** 	/* Read the nBytes */
  61:LIS3DH_SPI.c  **** 	SPI_Interface_Multi_RW(dataTX, 1, dataRX, nBytes, CS_LIS3DH);
 130              		.loc 1 61 0
 131 000e 0124     		movs	r4, #1
 132 0010 0094     		str	r4, [sp]
 133 0012 1346     		mov	r3, r2
 134 0014 0A46     		mov	r2, r1
 135              	.LVL9:
 136 0016 2146     		mov	r1, r4
 137              	.LVL10:
 138 0018 FFF7FEFF 		bl	SPI_Interface_Multi_RW
 139              	.LVL11:
  62:LIS3DH_SPI.c  **** 		
  63:LIS3DH_SPI.c  **** }
 140              		.loc 1 63 0
 141 001c 04B0     		add	sp, sp, #16
 142              		.cfi_def_cfa_offset 8
 143              		@ sp needed
 144 001e 10BD     		pop	{r4, pc}
 145              		.cfi_endproc
 146              	.LFE2:
 147              		.size	LIS3DH_readPage, .-LIS3DH_readPage
 148              		.section	.text.LIS3DH_writePage,"ax",%progbits
 149              		.align	2
 150              		.global	LIS3DH_writePage
 151              		.thumb
 152              		.thumb_func
 153              		.type	LIS3DH_writePage, %function
 154              	LIS3DH_writePage:
 155              	.LFB3:
  64:LIS3DH_SPI.c  **** 
  65:LIS3DH_SPI.c  **** void LIS3DH_writePage(uint8_t addr, uint8_t* data, uint8_t nBytes) {
 156              		.loc 1 65 0
 157              		.cfi_startproc
 158              		@ args = 0, pretend = 0, frame = 8
 159              		@ frame_needed = 1, uses_anonymous_args = 0
 160              	.LVL12:
 161 0000 2DE9F043 		push	{r4, r5, r6, r7, r8, r9, lr}
 162              		.cfi_def_cfa_offset 28
 163              		.cfi_offset 4, -28
ARM GAS  C:\Users\noemi\AppData\Local\Temp\ccoSsdXb.s 			page 5


 164              		.cfi_offset 5, -24
 165              		.cfi_offset 6, -20
 166              		.cfi_offset 7, -16
 167              		.cfi_offset 8, -12
 168              		.cfi_offset 9, -8
 169              		.cfi_offset 14, -4
 170 0004 85B0     		sub	sp, sp, #20
 171              		.cfi_def_cfa_offset 48
 172 0006 02AF     		add	r7, sp, #8
 173              		.cfi_def_cfa 7, 40
 174 0008 0446     		mov	r4, r0
 175 000a 8946     		mov	r9, r1
 176 000c 1546     		mov	r5, r2
  66:LIS3DH_SPI.c  **** 	    
  67:LIS3DH_SPI.c  ****     CyDelayUs(1);
 177              		.loc 1 67 0
 178 000e 0120     		movs	r0, #1
 179              	.LVL13:
 180 0010 FFF7FEFF 		bl	CyDelayUs
 181              	.LVL14:
  68:LIS3DH_SPI.c  ****     
  69:LIS3DH_SPI.c  **** 	/* Prepare the TX packet of size nBytes+3 
  70:LIS3DH_SPI.c  ****        [ Write Instruction - Address MSB - Address LSB - +++data+++ ]
  71:LIS3DH_SPI.c  ****     */
  72:LIS3DH_SPI.c  **** 	uint8_t dataTX[1+nBytes];
 182              		.loc 1 72 0
 183 0014 05F10108 		add	r8, r5, #1
 184              	.LVL15:
 185 0018 05F10803 		add	r3, r5, #8
 186 001c 23F00703 		bic	r3, r3, #7
 187 0020 ADEB030D 		sub	sp, sp, r3
 188 0024 02AE     		add	r6, sp, #8
 189              	.LVL16:
  73:LIS3DH_SPI.c  ****     dataTX[0] = (SPI_LIS3DH_WRITE)|(SPI_LIS3DH_MS)|(addr & address_mask6);
 190              		.loc 1 73 0
 191 0026 04F03F04 		and	r4, r4, #63
 192 002a 44F04004 		orr	r4, r4, #64
 193 002e 8DF80840 		strb	r4, [sp, #8]
  74:LIS3DH_SPI.c  **** 
  75:LIS3DH_SPI.c  ****     /* Copy the input data in the memory */
  76:LIS3DH_SPI.c  **** 	memcpy(&dataTX[1], data, nBytes);
 194              		.loc 1 76 0
 195 0032 2A46     		mov	r2, r5
 196 0034 4946     		mov	r1, r9
 197 0036 0DF10900 		add	r0, sp, #9
 198 003a FFF7FEFF 		bl	memcpy
 199              	.LVL17:
  77:LIS3DH_SPI.c  **** 	
  78:LIS3DH_SPI.c  **** 	/* Nothing to RX: point to a dummy variable */
  79:LIS3DH_SPI.c  **** 	uint8_t temp = 0;
 200              		.loc 1 79 0
 201 003e 0023     		movs	r3, #0
 202 0040 07F10802 		add	r2, r7, #8
 203 0044 02F8013D 		strb	r3, [r2, #-1]!
  80:LIS3DH_SPI.c  **** 	
  81:LIS3DH_SPI.c  **** 	SPI_Interface_Multi_RW(dataTX, 1+nBytes, &temp, 0, CS_LIS3DH);
 204              		.loc 1 81 0
ARM GAS  C:\Users\noemi\AppData\Local\Temp\ccoSsdXb.s 			page 6


 205 0048 0121     		movs	r1, #1
 206 004a 0091     		str	r1, [sp]
 207 004c 5FFA88F1 		uxtb	r1, r8
 208 0050 3046     		mov	r0, r6
 209 0052 FFF7FEFF 		bl	SPI_Interface_Multi_RW
 210              	.LVL18:
  82:LIS3DH_SPI.c  **** 	
  83:LIS3DH_SPI.c  **** }
 211              		.loc 1 83 0
 212 0056 0C37     		adds	r7, r7, #12
 213              		.cfi_def_cfa_offset 28
 214 0058 BD46     		mov	sp, r7
 215              		.cfi_def_cfa_register 13
 216              		@ sp needed
 217 005a BDE8F083 		pop	{r4, r5, r6, r7, r8, r9, pc}
 218              		.cfi_endproc
 219              	.LFE3:
 220              		.size	LIS3DH_writePage, .-LIS3DH_writePage
 221 005e 00BF     		.text
 222              	.Letext0:
 223              		.file 2 "c:\\program files (x86)\\cypress\\psoc creator\\4.3\\psoc creator\\import\\gnu\\arm\\5.4.
 224              		.file 3 "c:\\program files (x86)\\cypress\\psoc creator\\4.3\\psoc creator\\import\\gnu\\arm\\5.4.
 225              		.file 4 "SPI_Interface.h"
 226              		.file 5 "Generated_Source\\PSoC5/CyLib.h"