ARM GAS  C:\Users\Lorenzo\AppData\Local\Temp\ccYoD4lh.s 			page 1


   1              		.syntax unified
   2              		.cpu cortex-m3
   3              		.fpu softvfp
   4              		.eabi_attribute 20, 1
   5              		.eabi_attribute 21, 1
   6              		.eabi_attribute 23, 3
   7              		.eabi_attribute 24, 1
   8              		.eabi_attribute 25, 1
   9              		.eabi_attribute 26, 1
  10              		.eabi_attribute 30, 1
  11              		.eabi_attribute 34, 1
  12              		.eabi_attribute 18, 4
  13              		.thumb
  14              		.syntax unified
  15              		.file	"main.c"
  16              		.text
  17              	.Ltext0:
  18              		.cfi_sections	.debug_frame
  19              		.section	.text.main,"ax",%progbits
  20              		.align	2
  21              		.global	main
  22              		.thumb
  23              		.thumb_func
  24              		.type	main, %function
  25              	main:
  26              	.LFB64:
  27              		.file 1 "main.c"
   1:main.c        **** /* ========================================
   2:main.c        ****  *
   3:main.c        **** FINAL PROJECT 
   4:main.c        **** Francioli Lorenzo
   5:main.c        **** Gozzi Noemi
   6:main.c        ****  *
   7:main.c        ****  * ========================================
   8:main.c        **** */
   9:main.c        **** #include "project.h"
  10:main.c        **** #include "LIS3DH.h"
  11:main.c        **** #include "LIS3DH_SPI.h"
  12:main.c        **** #include "SPI_Interface.h"
  13:main.c        **** #include <stdio.h>
  14:main.c        **** #include <string.h>
  15:main.c        **** #include <stdlib.h>
  16:main.c        **** #include "InterruptRoutines.h"
  17:main.c        **** #include "RGBLedDriver.h"
  18:main.c        **** #include "25LC256.h"
  19:main.c        **** #include "SPI_Interface_EEPROM.h"
  20:main.c        **** 
  21:main.c        **** #define UART_1_PutBuffer UART_1_PutString(bufferUART)
  22:main.c        **** #define DATA_BYTES 6
  23:main.c        **** #define CONVERSION_FACTOR_DIGIT_MG 4
  24:main.c        **** #define TRANSMIT_BUFFER_SIZE 8
  25:main.c        **** #define CONVERSION_MG_RGB 255/2000
  26:main.c        **** 
  27:main.c        **** char bufferUART[100];
  28:main.c        **** 
  29:main.c        **** int main(void)
  30:main.c        **** {
ARM GAS  C:\Users\Lorenzo\AppData\Local\Temp\ccYoD4lh.s 			page 2


  28              		.loc 1 30 0
  29              		.cfi_startproc
  30              		@ args = 0, pretend = 0, frame = 40
  31              		@ frame_needed = 0, uses_anonymous_args = 0
  32 0000 2DE9F047 		push	{r4, r5, r6, r7, r8, r9, r10, lr}
  33              		.cfi_def_cfa_offset 32
  34              		.cfi_offset 4, -32
  35              		.cfi_offset 5, -28
  36              		.cfi_offset 6, -24
  37              		.cfi_offset 7, -20
  38              		.cfi_offset 8, -16
  39              		.cfi_offset 9, -12
  40              		.cfi_offset 10, -8
  41              		.cfi_offset 14, -4
  42 0004 8CB0     		sub	sp, sp, #48
  43              		.cfi_def_cfa_offset 80
  31:main.c        ****     CyGlobalIntEnable; /* Enable global interrupts. */
  44              		.loc 1 31 0
  45              		.syntax unified
  46              	@ 31 "main.c" 1
  47 0006 62B6     		CPSIE   i
  48              	@ 0 "" 2
  32:main.c        ****     
  33:main.c        ****     /*          INITIALIZATION          */
  34:main.c        ****     UART_1_Start();
  49              		.loc 1 34 0
  50              		.thumb
  51              		.syntax unified
  52 0008 FFF7FEFF 		bl	UART_1_Start
  53              	.LVL0:
  35:main.c        ****     SPIM_1_Start();
  54              		.loc 1 35 0
  55 000c FFF7FEFF 		bl	SPIM_1_Start
  56              	.LVL1:
  36:main.c        ****     SPIM_2_Start();
  57              		.loc 1 36 0
  58 0010 FFF7FEFF 		bl	SPIM_2_Start
  59              	.LVL2:
  37:main.c        ****     RGBLed_Start();
  60              		.loc 1 37 0
  61 0014 FFF7FEFF 		bl	RGBLed_Start
  62              	.LVL3:
  38:main.c        ****     ADC_DelSig_Start();
  63              		.loc 1 38 0
  64 0018 FFF7FEFF 		bl	ADC_DelSig_Start
  65              	.LVL4:
  39:main.c        ****     CyDelay(10);
  66              		.loc 1 39 0
  67 001c 0A20     		movs	r0, #10
  68 001e FFF7FEFF 		bl	CyDelay
  69              	.LVL5:
  40:main.c        ****     
  41:main.c        ****     sprintf(bufferUART, "^^^^^^^^ Final Project: Noemi Gozzi, Lorenzo Francioli ^^^^^^^^\r\n\n");
  70              		.loc 1 41 0
  71 0022 A24C     		ldr	r4, .L11
  72 0024 4322     		movs	r2, #67
  73 0026 A249     		ldr	r1, .L11+4
ARM GAS  C:\Users\Lorenzo\AppData\Local\Temp\ccYoD4lh.s 			page 3


  74 0028 2046     		mov	r0, r4
  75 002a FFF7FEFF 		bl	memcpy
  76              	.LVL6:
  42:main.c        ****     UART_1_PutBuffer;
  77              		.loc 1 42 0
  78 002e 2046     		mov	r0, r4
  79 0030 FFF7FEFF 		bl	UART_1_PutString
  80              	.LVL7:
  43:main.c        ****     
  44:main.c        ****     /*********************CONFIGURATION and TEST SECTION*******************/
  45:main.c        ****     sprintf(bufferUART, "**************** TEST EEPROM and LIS3DH CONFIGURATION******************* \
  81              		.loc 1 45 0
  82 0034 4D22     		movs	r2, #77
  83 0036 9F49     		ldr	r1, .L11+8
  84 0038 2046     		mov	r0, r4
  85 003a FFF7FEFF 		bl	memcpy
  86              	.LVL8:
  46:main.c        ****     UART_1_PutBuffer;
  87              		.loc 1 46 0
  88 003e 2046     		mov	r0, r4
  89 0040 FFF7FEFF 		bl	UART_1_PutString
  90              	.LVL9:
  47:main.c        ****     
  48:main.c        ****     /*********************EEPROM TEST*******************/
  49:main.c        ****     int16_t data_test_eeprom[3] = {15, -32, 258};
  91              		.loc 1 49 0
  92 0044 9C4B     		ldr	r3, .L11+12
  93 0046 1868     		ldr	r0, [r3]	@ unaligned
  94 0048 0A90     		str	r0, [sp, #40]	@ unaligned
  95 004a 9B88     		ldrh	r3, [r3, #4]	@ unaligned
  96 004c ADF82C30 		strh	r3, [sp, #44]	@ unaligned
  50:main.c        ****     EEPROM_writePage(0x0020, (uint8_t*) data_test_eeprom, DATA_BYTES);
  97              		.loc 1 50 0
  98 0050 0622     		movs	r2, #6
  99 0052 0AA9     		add	r1, sp, #40
 100 0054 2020     		movs	r0, #32
 101 0056 FFF7FEFF 		bl	EEPROM_writePage
 102              	.LVL10:
  51:main.c        ****     EEPROM_waitForWriteComplete();
 103              		.loc 1 51 0
 104 005a FFF7FEFF 		bl	EEPROM_waitForWriteComplete
 105              	.LVL11:
  52:main.c        ****     int16_t data_EEPROM[3];
  53:main.c        ****     EEPROM_readPage(0x0020, (uint8_t*) data_EEPROM, DATA_BYTES);
 106              		.loc 1 53 0
 107 005e 0622     		movs	r2, #6
 108 0060 08A9     		add	r1, sp, #32
 109 0062 2020     		movs	r0, #32
 110 0064 FFF7FEFF 		bl	EEPROM_readPage
 111              	.LVL12:
  54:main.c        ****     sprintf(bufferUART, " --> EEPROM Test Read = %d %d %d, expected 15 -32 258\r\n\n", data_EEPROM[
 112              		.loc 1 54 0
 113 0068 BDF92020 		ldrsh	r2, [sp, #32]
 114 006c BDF92230 		ldrsh	r3, [sp, #34]
 115 0070 BDF92410 		ldrsh	r1, [sp, #36]
 116 0074 0091     		str	r1, [sp]
 117 0076 9149     		ldr	r1, .L11+16
ARM GAS  C:\Users\Lorenzo\AppData\Local\Temp\ccYoD4lh.s 			page 4


 118 0078 2046     		mov	r0, r4
 119 007a FFF7FEFF 		bl	sprintf
 120              	.LVL13:
  55:main.c        ****     UART_1_PutBuffer;
 121              		.loc 1 55 0
 122 007e 2046     		mov	r0, r4
 123 0080 FFF7FEFF 		bl	UART_1_PutString
 124              	.LVL14:
  56:main.c        ****     
  57:main.c        ****     uint8_t data_read;
  58:main.c        ****     
  59:main.c        ****     /*********************WHO AM I REGISTER*******************/
  60:main.c        ****     data_read = LIS3DH_readByte(LIS3DH_WHO_AM_I_REG_ADDR);
 125              		.loc 1 60 0
 126 0084 0F20     		movs	r0, #15
 127 0086 FFF7FEFF 		bl	LIS3DH_readByte
 128              	.LVL15:
  61:main.c        ****     sprintf(bufferUART, " --> LIS3DH WHO I AM REGISTER = 0x%02X\r\n", data_read);
 129              		.loc 1 61 0
 130 008a 0246     		mov	r2, r0
 131 008c 8C49     		ldr	r1, .L11+20
 132 008e 2046     		mov	r0, r4
 133              	.LVL16:
 134 0090 FFF7FEFF 		bl	sprintf
 135              	.LVL17:
  62:main.c        ****     UART_1_PutBuffer;
 136              		.loc 1 62 0
 137 0094 2046     		mov	r0, r4
 138 0096 FFF7FEFF 		bl	UART_1_PutString
 139              	.LVL18:
  63:main.c        ****     
  64:main.c        ****     /*********************CONTROL REGISTER 1*******************/
  65:main.c        ****     /*          settings: 0x27                                */
  66:main.c        ****     /*          0b00100111                                    */
  67:main.c        ****     /*          CTRL1[4:7]=0100 frequency=10 Hz               */
  68:main.c        ****     /*          CTRL1[0:2]=1 x,y,z enable                     */
  69:main.c        ****     /*          CTRL1[3]=1 normal/high resolution mode        */
  70:main.c        ****     
  71:main.c        ****     LIS3DH_writeByte(LIS3DH_CTRL_REG1, 0x37);
 140              		.loc 1 71 0
 141 009a 3721     		movs	r1, #55
 142 009c 2020     		movs	r0, #32
 143 009e FFF7FEFF 		bl	LIS3DH_writeByte
 144              	.LVL19:
  72:main.c        ****     data_read = LIS3DH_readByte(LIS3DH_CTRL_REG1);
 145              		.loc 1 72 0
 146 00a2 2020     		movs	r0, #32
 147 00a4 FFF7FEFF 		bl	LIS3DH_readByte
 148              	.LVL20:
  73:main.c        ****     sprintf(bufferUART, " --> LIS3DH CTRL REGISTER 1= 0x%02X\r\n", data_read);
 149              		.loc 1 73 0
 150 00a8 0246     		mov	r2, r0
 151 00aa 8649     		ldr	r1, .L11+24
 152 00ac 2046     		mov	r0, r4
 153              	.LVL21:
 154 00ae FFF7FEFF 		bl	sprintf
 155              	.LVL22:
ARM GAS  C:\Users\Lorenzo\AppData\Local\Temp\ccYoD4lh.s 			page 5


  74:main.c        ****     UART_1_PutBuffer;
 156              		.loc 1 74 0
 157 00b2 2046     		mov	r0, r4
 158 00b4 FFF7FEFF 		bl	UART_1_PutString
 159              	.LVL23:
  75:main.c        ****     
  76:main.c        ****     /*********************CONTROL REGISTER 4*******************/
  77:main.c        ****     /*          settings:  0x00                               */
  78:main.c        ****     /*          CTRL4[0]=0 SPI with 4 wires (not 3)           */
  79:main.c        ****     /*          CTRL4[4:5]= FULL SCALE RANGE. e.g. 00 +-2g    */
  80:main.c        ****     /*          CTRL4[3]=RESOLUTION. normal 0                 */
  81:main.c        ****     /*                                                        */
  82:main.c        ****     LIS3DH_writeByte(LIS3DH_CTRL_REG4, LIS3DH_CTRL_REG4_2G_NORMAL);
 160              		.loc 1 82 0
 161 00b8 0021     		movs	r1, #0
 162 00ba 2320     		movs	r0, #35
 163 00bc FFF7FEFF 		bl	LIS3DH_writeByte
 164              	.LVL24:
  83:main.c        ****     data_read = LIS3DH_readByte(LIS3DH_CTRL_REG4);
 165              		.loc 1 83 0
 166 00c0 2320     		movs	r0, #35
 167 00c2 FFF7FEFF 		bl	LIS3DH_readByte
 168              	.LVL25:
  84:main.c        ****     sprintf(bufferUART, " --> LIS3DH CTRL REGISTER 4= 0x%02X\r\n", data_read);
 169              		.loc 1 84 0
 170 00c6 0246     		mov	r2, r0
 171 00c8 7F49     		ldr	r1, .L11+28
 172 00ca 2046     		mov	r0, r4
 173              	.LVL26:
 174 00cc FFF7FEFF 		bl	sprintf
 175              	.LVL27:
  85:main.c        ****     UART_1_PutBuffer;
 176              		.loc 1 85 0
 177 00d0 2046     		mov	r0, r4
 178 00d2 FFF7FEFF 		bl	UART_1_PutString
 179              	.LVL28:
  86:main.c        ****     
  87:main.c        ****     /*********************CONTROL REGISTER 5*******************/
  88:main.c        ****     /*          settings: 0x40                                */
  89:main.c        ****     /*          0b01--0000                                    */
  90:main.c        ****     /*          CTRL5[6]=1 FIFO enable                        */
  91:main.c        ****  
  92:main.c        ****     LIS3DH_writeByte(LIS3DH_CTRL_REG5, LIS3DH_CTRL_REG5_FIFO_EN);
 180              		.loc 1 92 0
 181 00d6 4021     		movs	r1, #64
 182 00d8 2420     		movs	r0, #36
 183 00da FFF7FEFF 		bl	LIS3DH_writeByte
 184              	.LVL29:
  93:main.c        ****     data_read = LIS3DH_readByte(LIS3DH_CTRL_REG5);
 185              		.loc 1 93 0
 186 00de 2420     		movs	r0, #36
 187 00e0 FFF7FEFF 		bl	LIS3DH_readByte
 188              	.LVL30:
  94:main.c        ****     sprintf(bufferUART, " --> LIS3DH CTRL REGISTER 5= 0x%02X\r\n", data_read);
 189              		.loc 1 94 0
 190 00e4 0246     		mov	r2, r0
 191 00e6 7949     		ldr	r1, .L11+32
ARM GAS  C:\Users\Lorenzo\AppData\Local\Temp\ccYoD4lh.s 			page 6


 192 00e8 2046     		mov	r0, r4
 193              	.LVL31:
 194 00ea FFF7FEFF 		bl	sprintf
 195              	.LVL32:
  95:main.c        ****     UART_1_PutBuffer;
 196              		.loc 1 95 0
 197 00ee 2046     		mov	r0, r4
 198 00f0 FFF7FEFF 		bl	UART_1_PutString
 199              	.LVL33:
  96:main.c        ****     
  97:main.c        ****     /*********************FIFO_CTRL_REG************************/
  98:main.c        ****     /*          settings:  0x00                               */
  99:main.c        ****     /*          0b00000000                                    */
 100:main.c        ****     /*          FIFOCTRL[6:7]=00 BYPASS mode                   */
 101:main.c        ****     LIS3DH_writeByte(LIS3DH_FIFO_CTRL_REG,0x00);
 200              		.loc 1 101 0
 201 00f4 0021     		movs	r1, #0
 202 00f6 2E20     		movs	r0, #46
 203 00f8 FFF7FEFF 		bl	LIS3DH_writeByte
 204              	.LVL34:
 102:main.c        ****     data_read = LIS3DH_readByte(LIS3DH_FIFO_CTRL_REG);
 205              		.loc 1 102 0
 206 00fc 2E20     		movs	r0, #46
 207 00fe FFF7FEFF 		bl	LIS3DH_readByte
 208              	.LVL35:
 103:main.c        ****     sprintf(bufferUART, " --> LIS3DH FIFO CTRL REGISTER (BYPASS mode) = 0x%02X\r\n", data_read);
 209              		.loc 1 103 0
 210 0102 0246     		mov	r2, r0
 211 0104 7249     		ldr	r1, .L11+36
 212 0106 2046     		mov	r0, r4
 213              	.LVL36:
 214 0108 FFF7FEFF 		bl	sprintf
 215              	.LVL37:
 104:main.c        ****     UART_1_PutBuffer;
 216              		.loc 1 104 0
 217 010c 2046     		mov	r0, r4
 218 010e FFF7FEFF 		bl	UART_1_PutString
 219              	.LVL38:
 105:main.c        ****     
 106:main.c        ****     /*          settings:  0x47                               */
 107:main.c        ****     /*          0b01000111                                    */
 108:main.c        ****     /*          FIFOCTRL[6:7]=01 FIFO mode                    */
 109:main.c        ****     /*          FIFOCTRL[5]=0 allows triggering signal on INT1*/
 110:main.c        ****     /*          FIFOCTRL[0:4]=00111 watermark: 7 sample       */
 111:main.c        ****     LIS3DH_writeByte(LIS3DH_FIFO_CTRL_REG, LIS3DH_FIFO_CTRL_REG_FIFO_MODE_WTM_7);
 220              		.loc 1 111 0
 221 0112 4721     		movs	r1, #71
 222 0114 2E20     		movs	r0, #46
 223 0116 FFF7FEFF 		bl	LIS3DH_writeByte
 224              	.LVL39:
 112:main.c        ****     data_read = LIS3DH_readByte(LIS3DH_FIFO_CTRL_REG);
 225              		.loc 1 112 0
 226 011a 2E20     		movs	r0, #46
 227 011c FFF7FEFF 		bl	LIS3DH_readByte
 228              	.LVL40:
 113:main.c        ****     sprintf(bufferUART, " --> LIS3DH FIFO CTRL REGISTER (FIFO mode) = 0x%02X\r\n", data_read);
 229              		.loc 1 113 0
ARM GAS  C:\Users\Lorenzo\AppData\Local\Temp\ccYoD4lh.s 			page 7


 230 0120 0246     		mov	r2, r0
 231 0122 6C49     		ldr	r1, .L11+40
 232 0124 2046     		mov	r0, r4
 233              	.LVL41:
 234 0126 FFF7FEFF 		bl	sprintf
 235              	.LVL42:
 114:main.c        ****     UART_1_PutBuffer;
 236              		.loc 1 114 0
 237 012a 2046     		mov	r0, r4
 238 012c FFF7FEFF 		bl	UART_1_PutString
 239              	.LVL43:
 115:main.c        ****     
 116:main.c        ****     /*********************CONTROL REGISTER 3*******************/
 117:main.c        ****     /*          settings:   0x44                              */
 118:main.c        ****     /*          0b01000100                                    */
 119:main.c        ****     /*          CTRL3[6]=1 IA1 interrupt on INT1              */
 120:main.c        ****     /*          CTRL3[2]=1 watermark interrupt set            */
 121:main.c        **** 
 122:main.c        ****     LIS3DH_writeByte(LIS3DH_CTRL_REG3, LIS3DH_CTRL_REG3_IA1_WTM_INT);
 240              		.loc 1 122 0
 241 0130 4421     		movs	r1, #68
 242 0132 2220     		movs	r0, #34
 243 0134 FFF7FEFF 		bl	LIS3DH_writeByte
 244              	.LVL44:
 123:main.c        ****     data_read = LIS3DH_readByte(LIS3DH_CTRL_REG3);
 245              		.loc 1 123 0
 246 0138 2220     		movs	r0, #34
 247 013a FFF7FEFF 		bl	LIS3DH_readByte
 248              	.LVL45:
 124:main.c        ****     sprintf(bufferUART, " --> LIS3DH CTRL REGISTER 3= 0x%02X\r\n", data_read);
 249              		.loc 1 124 0
 250 013e 0246     		mov	r2, r0
 251 0140 6549     		ldr	r1, .L11+44
 252 0142 2046     		mov	r0, r4
 253              	.LVL46:
 254 0144 FFF7FEFF 		bl	sprintf
 255              	.LVL47:
 125:main.c        ****     UART_1_PutBuffer;
 256              		.loc 1 125 0
 257 0148 2046     		mov	r0, r4
 258 014a FFF7FEFF 		bl	UART_1_PutString
 259              	.LVL48:
 126:main.c        ****     
 127:main.c        ****     /*********************INT1 CFG REGISTER *******************/
 128:main.c        ****     /*          settings:   0x2A                              */
 129:main.c        ****     /*          0b00101010                                    */
 130:main.c        ****     /*          INT1CFG[7]=0 OR combination of interrupts     */
 131:main.c        ****     /*          INT1CFG[5]=1 enable interrupt on Z HIGH event */
 132:main.c        ****     /*          INT1CFG[3]=1 enable interrupt on Y HIGH event */
 133:main.c        ****     /*          INT1CFG[1]=1 enable interrupt on X HIGH event */
 134:main.c        **** 
 135:main.c        ****     LIS3DH_writeByte(LIS3DH_INT1_CFG, LIS3DH_INT1_CFG_OR_XYZIHE);
 260              		.loc 1 135 0
 261 014e 2A21     		movs	r1, #42
 262 0150 3020     		movs	r0, #48
 263 0152 FFF7FEFF 		bl	LIS3DH_writeByte
 264              	.LVL49:
ARM GAS  C:\Users\Lorenzo\AppData\Local\Temp\ccYoD4lh.s 			page 8


 136:main.c        ****     data_read = LIS3DH_readByte(LIS3DH_INT1_CFG);
 265              		.loc 1 136 0
 266 0156 3020     		movs	r0, #48
 267 0158 FFF7FEFF 		bl	LIS3DH_readByte
 268              	.LVL50:
 137:main.c        ****     sprintf(bufferUART, " --> LIS3DH INT 1 CFG REGISTER= 0x%02X\r\n", data_read);
 269              		.loc 1 137 0
 270 015c 0246     		mov	r2, r0
 271 015e 5F49     		ldr	r1, .L11+48
 272 0160 2046     		mov	r0, r4
 273              	.LVL51:
 274 0162 FFF7FEFF 		bl	sprintf
 275              	.LVL52:
 138:main.c        ****     UART_1_PutBuffer;
 276              		.loc 1 138 0
 277 0166 2046     		mov	r0, r4
 278 0168 FFF7FEFF 		bl	UART_1_PutString
 279              	.LVL53:
 139:main.c        ****     
 140:main.c        ****     /*********************INT1 THS REGISTER *******************/
 141:main.c        ****     /*          settings:   0x52                              */
 142:main.c        ****     /*          0b01011100                                    */
 143:main.c        ****     /*          thresh:1472mg (82 x 16 mg)                    */
 144:main.c        ****     
 145:main.c        ****     LIS3DH_writeByte(LIS3DH_INT1_THS, 0x52);
 280              		.loc 1 145 0
 281 016c 5221     		movs	r1, #82
 282 016e 3220     		movs	r0, #50
 283 0170 FFF7FEFF 		bl	LIS3DH_writeByte
 284              	.LVL54:
 146:main.c        ****     data_read = LIS3DH_readByte(LIS3DH_INT1_THS);
 285              		.loc 1 146 0
 286 0174 3220     		movs	r0, #50
 287 0176 FFF7FEFF 		bl	LIS3DH_readByte
 288              	.LVL55:
 147:main.c        ****     sprintf(bufferUART, " --> LIS3DH INT1 THS REGISTER= 0x%02X\r\n", data_read);
 289              		.loc 1 147 0
 290 017a 0246     		mov	r2, r0
 291 017c 5849     		ldr	r1, .L11+52
 292 017e 2046     		mov	r0, r4
 293              	.LVL56:
 294 0180 FFF7FEFF 		bl	sprintf
 295              	.LVL57:
 148:main.c        ****     UART_1_PutBuffer;
 296              		.loc 1 148 0
 297 0184 2046     		mov	r0, r4
 298 0186 FFF7FEFF 		bl	UART_1_PutString
 299              	.LVL58:
 149:main.c        ****     
 150:main.c        ****     /*******************INT1 DURATION REGISTER ****************/
 151:main.c        ****     /*          settings:   0x04                              */
 152:main.c        ****     /*          thresh:4/ODR=160ms (1/ODR = 40 ms)            */
 153:main.c        ****  
 154:main.c        ****     LIS3DH_writeByte(LIS3DH_INT1_DURATION, 0x04);
 300              		.loc 1 154 0
 301 018a 0421     		movs	r1, #4
 302 018c 3320     		movs	r0, #51
ARM GAS  C:\Users\Lorenzo\AppData\Local\Temp\ccYoD4lh.s 			page 9


 303 018e FFF7FEFF 		bl	LIS3DH_writeByte
 304              	.LVL59:
 155:main.c        ****     data_read = LIS3DH_readByte(LIS3DH_INT1_DURATION);
 305              		.loc 1 155 0
 306 0192 3320     		movs	r0, #51
 307 0194 FFF7FEFF 		bl	LIS3DH_readByte
 308              	.LVL60:
 156:main.c        ****     sprintf(bufferUART, " --> LIS3DH DURATION REGISTER= 0x%02X\r\n", data_read);
 309              		.loc 1 156 0
 310 0198 0246     		mov	r2, r0
 311 019a 5249     		ldr	r1, .L11+56
 312 019c 2046     		mov	r0, r4
 313              	.LVL61:
 314 019e FFF7FEFF 		bl	sprintf
 315              	.LVL62:
 157:main.c        ****     UART_1_PutBuffer;
 316              		.loc 1 157 0
 317 01a2 2046     		mov	r0, r4
 318 01a4 FFF7FEFF 		bl	UART_1_PutString
 319              	.LVL63:
 158:main.c        ****     UART_1_PutString("LA MEMI E' LA MIGLIORE CHE CI SIA");
 320              		.loc 1 158 0
 321 01a8 4F48     		ldr	r0, .L11+60
 322 01aa FFF7FEFF 		bl	UART_1_PutString
 323              	.LVL64:
 159:main.c        ****     CyDelay(10);
 324              		.loc 1 159 0
 325 01ae 0A20     		movs	r0, #10
 326 01b0 FFF7FEFF 		bl	CyDelay
 327              	.LVL65:
 160:main.c        ****     
 161:main.c        ****     
 162:main.c        **** 
 163:main.c        ****     //Variables declaration
 164:main.c        ****     uint8_t AccData[DATA_BYTES];
 165:main.c        ****     uint8_t AccData_Threshold [DATA_BYTES];
 166:main.c        ****     int16 OutAccX;
 167:main.c        ****     int16 OutAccY;
 168:main.c        ****     int16 OutAccZ;
 169:main.c        ****     uint8_t header = 0xA0;
 170:main.c        ****     uint8_t footer = 0xC0;
 171:main.c        ****     uint8_t OutArray[TRANSMIT_BUFFER_SIZE];
 172:main.c        ****    
 173:main.c        ****     //Header and footer set up
 174:main.c        ****     OutArray[0] = header;
 328              		.loc 1 174 0
 329 01b4 A023     		movs	r3, #160
 330 01b6 8DF80830 		strb	r3, [sp, #8]
 175:main.c        ****     OutArray[TRANSMIT_BUFFER_SIZE - 1] = footer;
 331              		.loc 1 175 0
 332 01ba C023     		movs	r3, #192
 333 01bc 8DF80F30 		strb	r3, [sp, #15]
 176:main.c        ****     uint8_t red_x, green_y, blue_z;
 177:main.c        ****     int16_t Acc_x;
 178:main.c        ****     int16_t Acc_y;
 179:main.c        ****     int16_t Acc_z;
 180:main.c        ****     
ARM GAS  C:\Users\Lorenzo\AppData\Local\Temp\ccYoD4lh.s 			page 10


 181:main.c        ****     PacketReadyFlag = 0;
 334              		.loc 1 181 0
 335 01c0 0022     		movs	r2, #0
 336 01c2 4A4B     		ldr	r3, .L11+64
 337 01c4 1A70     		strb	r2, [r3]
 182:main.c        ****     isr_ACC_StartEx(Custom_Pin_ISR);
 338              		.loc 1 182 0
 339 01c6 4A48     		ldr	r0, .L11+68
 340 01c8 FFF7FEFF 		bl	isr_ACC_StartEx
 341              	.LVL66:
 183:main.c        ****     
 184:main.c        ****     isr_DEBOUNCER_StartEx(Custom_Pin_Button);
 342              		.loc 1 184 0
 343 01cc 4948     		ldr	r0, .L11+72
 344 01ce FFF7FEFF 		bl	isr_DEBOUNCER_StartEx
 345              	.LVL67:
 185:main.c        ****     isr_TIMER_StartEx(Custom_Timer_Button);
 346              		.loc 1 185 0
 347 01d2 4948     		ldr	r0, .L11+76
 348 01d4 FFF7FEFF 		bl	isr_TIMER_StartEx
 349              	.LVL68:
 186:main.c        ****     isr_BLINKING_StartEx(Custom_LED_Blinking);
 350              		.loc 1 186 0
 351 01d8 4848     		ldr	r0, .L11+80
 352 01da FFF7FEFF 		bl	isr_BLINKING_StartEx
 353              	.LVL69:
 187:main.c        ****     isr_positive_StartEx(Custom_Pin_Button_Positive);
 354              		.loc 1 187 0
 355 01de 4848     		ldr	r0, .L11+84
 356 01e0 FFF7FEFF 		bl	isr_positive_StartEx
 357              	.LVL70:
 188:main.c        ****     isr_EnableDisable_StartEx(Custom_Pin_EnableDisable);
 358              		.loc 1 188 0
 359 01e4 4748     		ldr	r0, .L11+88
 360 01e6 FFF7FEFF 		bl	isr_EnableDisable_StartEx
 361              	.LVL71:
 189:main.c        ****     
 190:main.c        ****     FlagEnableDisable=Pin_EnableDisable_Read();
 362              		.loc 1 190 0
 363 01ea FFF7FEFF 		bl	Pin_EnableDisable_Read
 364              	.LVL72:
 365 01ee 464B     		ldr	r3, .L11+92
 366 01f0 1870     		strb	r0, [r3]
 191:main.c        ****     if (FlagEnableDisable==0) UARTVerboseFlag=0;
 367              		.loc 1 191 0
 368 01f2 1B78     		ldrb	r3, [r3]	@ zero_extendqisi2
 369 01f4 13F0FF0F 		tst	r3, #255
 370 01f8 02D1     		bne	.L2
 371              		.loc 1 191 0 is_stmt 0 discriminator 1
 372 01fa 0022     		movs	r2, #0
 373 01fc 434B     		ldr	r3, .L11+96
 374 01fe 1A70     		strb	r2, [r3]
 375              	.L2:
 192:main.c        ****     
 193:main.c        ****     ADC_DelSig_StartConvert();
 376              		.loc 1 193 0 is_stmt 1
 377 0200 FFF7FEFF 		bl	ADC_DelSig_StartConvert
ARM GAS  C:\Users\Lorenzo\AppData\Local\Temp\ccYoD4lh.s 			page 11


 378              	.LVL73:
 194:main.c        ****     
 195:main.c        ****     SPIM_1_Stop();
 379              		.loc 1 195 0
 380 0204 FFF7FEFF 		bl	SPIM_1_Stop
 381              	.LVL74:
 196:main.c        ****     SPIM_2_Stop();
 382              		.loc 1 196 0
 383 0208 FFF7FEFF 		bl	SPIM_2_Stop
 384              	.LVL75:
 197:main.c        ****     UART_1_Stop();
 385              		.loc 1 197 0
 386 020c FFF7FEFF 		bl	UART_1_Stop
 387              	.LVL76:
 388              	.L3:
 198:main.c        **** 
 199:main.c        **** //    uint8_t reading_eeprom;
 200:main.c        ****     
 201:main.c        ****     for(;;)
 202:main.c        ****     {
 203:main.c        ****    
 204:main.c        **** //        data_read = LIS3DH_readByte(LIS3DH_FIFO_SRC_REG);
 205:main.c        **** //        sprintf(bufferUART, "** LIS3DH FIFO SRC REG= 0x%02X\r\n", data_water);
 206:main.c        **** //        UART_1_PutBuffer;
 207:main.c        **** //        data_read = LIS3DH_readByte(LIS3DH_INT1_SRC);
 208:main.c        **** //        sprintf(bufferUART, "** LIS3DH_INT1_SRC= 0x%02X\r\n", data_read);
 209:main.c        **** //        UART_1_PutBuffer;
 210:main.c        ****         
 211:main.c        **** /*      TESTING FOR eeprom 0x0000 --> data register system_status - - - - - - verboseFlag      
 212:main.c        ****         reading_eeprom = EEPROM_readByte(0x0000);
 213:main.c        ****         sprintf(bufferUART, "** DATA REGISTER= 0x%02X\r\n", reading_eeprom);
 214:main.c        ****         UART_1_PutBuffer;
 215:main.c        **** */
 216:main.c        **** 
 217:main.c        ****         Acc_x = 0;
 218:main.c        ****         Acc_y = 0;
 219:main.c        ****         Acc_z = 0;
 220:main.c        **** 
 221:main.c        ****         if (PacketReadyFlag==1){
 389              		.loc 1 221 0
 390 0210 364B     		ldr	r3, .L11+64
 391 0212 1B78     		ldrb	r3, [r3]	@ zero_extendqisi2
 392 0214 DBB2     		uxtb	r3, r3
 393 0216 012B     		cmp	r3, #1
 394 0218 FAD1     		bne	.L3
 395              	.LBB2:
 222:main.c        ****             uint8_t data = LIS3DH_readByte(LIS3DH_INT1_SRC);
 396              		.loc 1 222 0
 397 021a 3120     		movs	r0, #49
 398 021c FFF7FEFF 		bl	LIS3DH_readByte
 399              	.LVL77:
 223:main.c        ****             if(data&0x40){
 400              		.loc 1 223 0
 401 0220 10F0400F 		tst	r0, #64
 402 0224 76D0     		beq	.L9
 224:main.c        ****                 sprintf(bufferUART, "THRESH 0x%02X\r\n", data);
 403              		.loc 1 224 0
ARM GAS  C:\Users\Lorenzo\AppData\Local\Temp\ccYoD4lh.s 			page 12


 404 0226 214C     		ldr	r4, .L11
 405 0228 0246     		mov	r2, r0
 406 022a 3949     		ldr	r1, .L11+100
 407 022c 2046     		mov	r0, r4
 408              	.LVL78:
 409 022e FFF7FEFF 		bl	sprintf
 410              	.LVL79:
 225:main.c        ****                 UART_1_PutBuffer;
 411              		.loc 1 225 0
 412 0232 2046     		mov	r0, r4
 413 0234 FFF7FEFF 		bl	UART_1_PutString
 414              	.LVL80:
 226:main.c        ****                 LIS3DH_readPage(LIS3DH_OUT_X_L, (uint8_t*) AccData_Threshold, DATA_BYTES);
 415              		.loc 1 226 0
 416 0238 0622     		movs	r2, #6
 417 023a 04A9     		add	r1, sp, #16
 418 023c 2820     		movs	r0, #40
 419 023e FFF7FEFF 		bl	LIS3DH_readPage
 420              	.LVL81:
 227:main.c        ****                 EEPROM_writePage(0x0080,(uint8_t*) AccData, DATA_BYTES);
 421              		.loc 1 227 0
 422 0242 0622     		movs	r2, #6
 423 0244 06A9     		add	r1, sp, #24
 424 0246 8020     		movs	r0, #128
 425 0248 FFF7FEFF 		bl	EEPROM_writePage
 426              	.LVL82:
 228:main.c        ****                 EEPROM_waitForWriteComplete();
 427              		.loc 1 228 0
 428 024c FFF7FEFF 		bl	EEPROM_waitForWriteComplete
 429              	.LVL83:
 229:main.c        **** //                EEPROM_readPage(0x0080, (uint8_t*) data_EEPROM, DATA_BYTES);
 230:main.c        **** //                Acc_x = ((int16)((AccData[0]) | ((AccData[1])<<8))>>6);
 231:main.c        **** //                Acc_y =((int16)((AccData[2]) | ((AccData[3])<<8))>>6);
 232:main.c        **** //                Acc_z =((int16)((AccData[4]) | ((AccData[5])<<8))>>6);
 233:main.c        **** //                sprintf(bufferUART, " --> EEPROM Test Read = %d %d %d \r\n\n", Acc_x* CONVERSION_
 234:main.c        **** //                UART_1_PutBuffer;
 235:main.c        ****                 LIS3DH_writeByte(LIS3DH_FIFO_CTRL_REG,0x00);
 430              		.loc 1 235 0
 431 0250 0021     		movs	r1, #0
 432 0252 2E20     		movs	r0, #46
 433 0254 FFF7FEFF 		bl	LIS3DH_writeByte
 434              	.LVL84:
 236:main.c        ****                 LIS3DH_writeByte(LIS3DH_FIFO_CTRL_REG,0x47);
 435              		.loc 1 236 0
 436 0258 4721     		movs	r1, #71
 437 025a 2E20     		movs	r0, #46
 438 025c FFF7FEFF 		bl	LIS3DH_writeByte
 439              	.LVL85:
 440 0260 D6E0     		b	.L5
 441              	.LVL86:
 442              	.L6:
 443              	.LBB3:
 237:main.c        ****                 
 238:main.c        ****             }
 239:main.c        ****             else{
 240:main.c        ****                 
 241:main.c        ****                 for (int i=0; i<7; i++){
ARM GAS  C:\Users\Lorenzo\AppData\Local\Temp\ccYoD4lh.s 			page 13


 242:main.c        ****                     LIS3DH_readPage(LIS3DH_OUT_X_L, (uint8_t*) AccData, DATA_BYTES);
 444              		.loc 1 242 0 discriminator 3
 445 0262 0622     		movs	r2, #6
 446 0264 06A9     		add	r1, sp, #24
 447 0266 2820     		movs	r0, #40
 448 0268 FFF7FEFF 		bl	LIS3DH_readPage
 449              	.LVL87:
 243:main.c        ****                     Acc_x = Acc_x + ((int16)((AccData[0]) | ((AccData[1])<<8))>>6);
 450              		.loc 1 243 0 discriminator 3
 451 026c 9DF81830 		ldrb	r3, [sp, #24]	@ zero_extendqisi2
 452 0270 9DF81920 		ldrb	r2, [sp, #25]	@ zero_extendqisi2
 453 0274 43EA0223 		orr	r3, r3, r2, lsl #8
 454 0278 43F38913 		sbfx	r3, r3, #6, #10
 455 027c 1D44     		add	r5, r5, r3
 456              	.LVL88:
 457 027e 2DB2     		sxth	r5, r5
 458              	.LVL89:
 244:main.c        ****                     Acc_y = Acc_y + ((int16)((AccData[2]) | ((AccData[3])<<8))>>6);
 459              		.loc 1 244 0 discriminator 3
 460 0280 9DF81A30 		ldrb	r3, [sp, #26]	@ zero_extendqisi2
 461 0284 9DF81B20 		ldrb	r2, [sp, #27]	@ zero_extendqisi2
 462 0288 43EA0223 		orr	r3, r3, r2, lsl #8
 463 028c 43F38913 		sbfx	r3, r3, #6, #10
 464 0290 3B44     		add	r3, r3, r7
 465 0292 1FB2     		sxth	r7, r3
 466              	.LVL90:
 245:main.c        ****                     Acc_z = Acc_z + ((int16)((AccData[4]) | ((AccData[5])<<8))>>6);
 467              		.loc 1 245 0 discriminator 3
 468 0294 9DF81C30 		ldrb	r3, [sp, #28]	@ zero_extendqisi2
 469 0298 9DF81D20 		ldrb	r2, [sp, #29]	@ zero_extendqisi2
 470 029c 43EA0223 		orr	r3, r3, r2, lsl #8
 471 02a0 43F38913 		sbfx	r3, r3, #6, #10
 472 02a4 2344     		add	r3, r3, r4
 473 02a6 1CB2     		sxth	r4, r3
 474              	.LVL91:
 241:main.c        ****                     LIS3DH_readPage(LIS3DH_OUT_X_L, (uint8_t*) AccData, DATA_BYTES);
 475              		.loc 1 241 0 discriminator 3
 476 02a8 0136     		adds	r6, r6, #1
 477              	.LVL92:
 478 02aa 37E0     		b	.L4
 479              	.L12:
 480              		.align	2
 481              	.L11:
 482 02ac 00000000 		.word	bufferUART
 483 02b0 00000000 		.word	.LC1
 484 02b4 44000000 		.word	.LC2
 485 02b8 00000000 		.word	.LANCHOR0
 486 02bc 94000000 		.word	.LC3
 487 02c0 D0000000 		.word	.LC4
 488 02c4 FC000000 		.word	.LC5
 489 02c8 24010000 		.word	.LC6
 490 02cc 4C010000 		.word	.LC7
 491 02d0 74010000 		.word	.LC8
 492 02d4 AC010000 		.word	.LC9
 493 02d8 E4010000 		.word	.LC10
 494 02dc 0C020000 		.word	.LC11
 495 02e0 38020000 		.word	.LC12
ARM GAS  C:\Users\Lorenzo\AppData\Local\Temp\ccYoD4lh.s 			page 14


 496 02e4 60020000 		.word	.LC13
 497 02e8 88020000 		.word	.LC14
 498 02ec 00000000 		.word	PacketReadyFlag
 499 02f0 00000000 		.word	Custom_Pin_ISR
 500 02f4 00000000 		.word	Custom_Pin_Button
 501 02f8 00000000 		.word	Custom_Timer_Button
 502 02fc 00000000 		.word	Custom_LED_Blinking
 503 0300 00000000 		.word	Custom_Pin_Button_Positive
 504 0304 00000000 		.word	Custom_Pin_EnableDisable
 505 0308 00000000 		.word	FlagEnableDisable
 506 030c 00000000 		.word	UARTVerboseFlag
 507 0310 AC020000 		.word	.LC15
 508              	.LVL93:
 509              	.L9:
 510              	.LBE3:
 511 0314 0026     		movs	r6, #0
 512 0316 3446     		mov	r4, r6
 513 0318 3746     		mov	r7, r6
 514 031a 3546     		mov	r5, r6
 515              	.LVL94:
 516              	.L4:
 517              	.LBB4:
 241:main.c        ****                     LIS3DH_readPage(LIS3DH_OUT_X_L, (uint8_t*) AccData, DATA_BYTES);
 518              		.loc 1 241 0 is_stmt 0 discriminator 1
 519 031c 062E     		cmp	r6, #6
 520 031e A0DD     		ble	.L6
 521              	.LBE4:
 246:main.c        ****                     
 247:main.c        ****                 }
 248:main.c        ****                 LIS3DH_writeByte(LIS3DH_FIFO_CTRL_REG,0x00);
 522              		.loc 1 248 0 is_stmt 1
 523 0320 0021     		movs	r1, #0
 524 0322 2E20     		movs	r0, #46
 525 0324 FFF7FEFF 		bl	LIS3DH_writeByte
 526              	.LVL95:
 249:main.c        ****                 LIS3DH_writeByte(LIS3DH_FIFO_CTRL_REG,0x47);
 527              		.loc 1 249 0
 528 0328 4721     		movs	r1, #71
 529 032a 2E20     		movs	r0, #46
 530 032c FFF7FEFF 		bl	LIS3DH_writeByte
 531              	.LVL96:
 250:main.c        ****                 
 251:main.c        ****                 Acc_x = Acc_x/7;
 532              		.loc 1 251 0
 533 0330 394A     		ldr	r2, .L13
 534 0332 82FB0536 		smull	r3, r6, r2, r5
 535              	.LVL97:
 536 0336 2E44     		add	r6, r6, r5
 537 0338 ED17     		asrs	r5, r5, #31
 538              	.LVL98:
 539 033a C5EBA606 		rsb	r6, r5, r6, asr #2
 540 033e 36B2     		sxth	r6, r6
 541              	.LVL99:
 252:main.c        ****                 Acc_y = Acc_y/7;
 542              		.loc 1 252 0
 543 0340 82FB0735 		smull	r3, r5, r2, r7
 544 0344 3D44     		add	r5, r5, r7
ARM GAS  C:\Users\Lorenzo\AppData\Local\Temp\ccYoD4lh.s 			page 15


 545 0346 FB17     		asrs	r3, r7, #31
 546 0348 C3EBA505 		rsb	r5, r3, r5, asr #2
 547 034c 2DB2     		sxth	r5, r5
 548              	.LVL100:
 253:main.c        ****                 Acc_z = Acc_z/7;
 549              		.loc 1 253 0
 550 034e 82FB0432 		smull	r3, r2, r2, r4
 551 0352 2244     		add	r2, r2, r4
 552 0354 E317     		asrs	r3, r4, #31
 553 0356 C3EBA204 		rsb	r4, r3, r2, asr #2
 554              	.LVL101:
 555 035a 24B2     		sxth	r4, r4
 556              	.LVL102:
 254:main.c        ****                 
 255:main.c        ****                 OutAccX = Acc_x * CONVERSION_FACTOR_DIGIT_MG;
 557              		.loc 1 255 0
 558 035c B600     		lsls	r6, r6, #2
 559              	.LVL103:
 560 035e B6B2     		uxth	r6, r6
 561 0360 37B2     		sxth	r7, r6
 562              	.LVL104:
 256:main.c        ****                 OutAccY = Acc_y * CONVERSION_FACTOR_DIGIT_MG;
 563              		.loc 1 256 0
 564 0362 AD00     		lsls	r5, r5, #2
 565              	.LVL105:
 566 0364 ADB2     		uxth	r5, r5
 567 0366 0FFA85F8 		sxth	r8, r5
 568              	.LVL106:
 257:main.c        ****                 OutAccZ = Acc_z * CONVERSION_FACTOR_DIGIT_MG;
 569              		.loc 1 257 0
 570 036a A400     		lsls	r4, r4, #2
 571              	.LVL107:
 572 036c A4B2     		uxth	r4, r4
 573 036e 0FFA84F9 		sxth	r9, r4
 574              	.LVL108:
 258:main.c        ****                 sprintf(bufferUART, "X: %d, Y: %d, Z: %d [mg]\r\n", OutAccX, OutAccY, OutAccZ);
 575              		.loc 1 258 0
 576 0372 DFF8B8A0 		ldr	r10, .L13+20
 577 0376 CDF80090 		str	r9, [sp]
 578 037a 4346     		mov	r3, r8
 579              	.LVL109:
 580 037c 3A46     		mov	r2, r7
 581 037e 2749     		ldr	r1, .L13+4
 582 0380 5046     		mov	r0, r10
 583 0382 FFF7FEFF 		bl	sprintf
 584              	.LVL110:
 259:main.c        ****                 UART_1_PutBuffer;
 585              		.loc 1 259 0
 586 0386 5046     		mov	r0, r10
 587 0388 FFF7FEFF 		bl	UART_1_PutString
 588              	.LVL111:
 260:main.c        ****                 
 261:main.c        ****                 if (UARTVerboseFlag){
 589              		.loc 1 261 0
 590 038c 244B     		ldr	r3, .L13+8
 591 038e 1B78     		ldrb	r3, [r3]	@ zero_extendqisi2
 592 0390 13F0FF0F 		tst	r3, #255
ARM GAS  C:\Users\Lorenzo\AppData\Local\Temp\ccYoD4lh.s 			page 16


 593 0394 16D0     		beq	.L7
 262:main.c        ****                     //data preparing for UART serial Communication
 263:main.c        ****                     OutArray[1] = (uint8_t)(OutAccX & 0xFF); 
 594              		.loc 1 263 0
 595 0396 8DF80960 		strb	r6, [sp, #9]
 264:main.c        ****                     OutArray[2] = (uint8_t)(OutAccX >> 8);
 596              		.loc 1 264 0
 597 039a C7F30723 		ubfx	r3, r7, #8, #8
 598 039e 8DF80A30 		strb	r3, [sp, #10]
 265:main.c        ****                     OutArray[3] = (uint8_t)(OutAccY & 0xFF);
 599              		.loc 1 265 0
 600 03a2 8DF80B50 		strb	r5, [sp, #11]
 266:main.c        ****                     OutArray[4] = (uint8_t)(OutAccY >> 8);
 601              		.loc 1 266 0
 602 03a6 C8F30723 		ubfx	r3, r8, #8, #8
 603 03aa 8DF80C30 		strb	r3, [sp, #12]
 267:main.c        ****                     OutArray[5] = (uint8_t)(OutAccZ & 0xFF);
 604              		.loc 1 267 0
 605 03ae 8DF80D40 		strb	r4, [sp, #13]
 268:main.c        ****                     OutArray[6] = (uint8_t)(OutAccZ >> 8);
 606              		.loc 1 268 0
 607 03b2 C9F30723 		ubfx	r3, r9, #8, #8
 608 03b6 8DF80E30 		strb	r3, [sp, #14]
 269:main.c        ****                     
 270:main.c        ****                     UART_1_PutArray(OutArray, TRANSMIT_BUFFER_SIZE);
 609              		.loc 1 270 0
 610 03ba 0821     		movs	r1, #8
 611 03bc 0DEB0100 		add	r0, sp, r1
 612 03c0 FFF7FEFF 		bl	UART_1_PutArray
 613              	.LVL112:
 614              	.L7:
 271:main.c        ****                 }
 272:main.c        ****                 
 273:main.c        ****                 red_x= (uint8_t)(abs(OutAccX*CONVERSION_MG_RGB));
 615              		.loc 1 273 0
 616 03c4 C7EB0727 		rsb	r7, r7, r7, lsl #8
 617              	.LVL113:
 618 03c8 164A     		ldr	r2, .L13+12
 619 03ca 82FB0730 		smull	r3, r0, r2, r7
 620 03ce FF17     		asrs	r7, r7, #31
 621 03d0 C7EBE010 		rsb	r0, r7, r0, asr #7
 622 03d4 0028     		cmp	r0, #0
 623 03d6 B8BF     		it	lt
 624 03d8 4042     		rsblt	r0, r0, #0
 625              	.LVL114:
 274:main.c        ****                 green_y=(uint8_t)(abs(OutAccY*CONVERSION_MG_RGB));
 626              		.loc 1 274 0
 627 03da C8EB0828 		rsb	r8, r8, r8, lsl #8
 628              	.LVL115:
 629 03de 82FB0831 		smull	r3, r1, r2, r8
 630 03e2 4FEAE878 		asr	r8, r8, #31
 631 03e6 C8EBE111 		rsb	r1, r8, r1, asr #7
 632 03ea 0029     		cmp	r1, #0
 633 03ec B8BF     		it	lt
 634 03ee 4942     		rsblt	r1, r1, #0
 635              	.LVL116:
 275:main.c        ****                 blue_z=(uint8_t)(abs(OutAccZ*CONVERSION_MG_RGB));
ARM GAS  C:\Users\Lorenzo\AppData\Local\Temp\ccYoD4lh.s 			page 17


 636              		.loc 1 275 0
 637 03f0 C9EB0929 		rsb	r9, r9, r9, lsl #8
 638              	.LVL117:
 639 03f4 82FB0932 		smull	r3, r2, r2, r9
 640 03f8 4FEAE979 		asr	r9, r9, #31
 641 03fc C9EBE212 		rsb	r2, r9, r2, asr #7
 642 0400 002A     		cmp	r2, #0
 643 0402 B8BF     		it	lt
 644 0404 5242     		rsblt	r2, r2, #0
 645              	.LVL118:
 276:main.c        **** 
 277:main.c        ****                 RGBLed_WriteColor(red_x, green_y, blue_z);
 646              		.loc 1 277 0
 647 0406 D2B2     		uxtb	r2, r2
 648 0408 C9B2     		uxtb	r1, r1
 649 040a C0B2     		uxtb	r0, r0
 650 040c FFF7FEFF 		bl	RGBLed_WriteColor
 651              	.LVL119:
 652              	.L5:
 278:main.c        ****             }
 279:main.c        ****         
 280:main.c        ****             
 281:main.c        ****         PacketReadyFlag=0;
 653              		.loc 1 281 0
 654 0410 0022     		movs	r2, #0
 655 0412 054B     		ldr	r3, .L13+16
 656 0414 1A70     		strb	r2, [r3]
 657 0416 FBE6     		b	.L3
 658              	.L14:
 659              		.align	2
 660              	.L13:
 661 0418 93244992 		.word	-1840700269
 662 041c BC020000 		.word	.LC16
 663 0420 00000000 		.word	UARTVerboseFlag
 664 0424 D34D6210 		.word	274877907
 665 0428 00000000 		.word	PacketReadyFlag
 666 042c 00000000 		.word	bufferUART
 667              	.LBE2:
 668              		.cfi_endproc
 669              	.LFE64:
 670              		.size	main, .-main
 671              		.comm	bufferUART,100,4
 672              		.comm	FlagEnableDisable,1,1
 673              		.comm	data_water,1,1
 674              		.comm	UARTVerboseFlag,1,1
 675              		.comm	PacketReadyFlag,1,1
 676              		.section	.rodata
 677              		.align	2
 678              		.set	.LANCHOR0,. + 0
 679              	.LC0:
 680 0000 0F00     		.short	15
 681 0002 E0FF     		.short	-32
 682 0004 0201     		.short	258
 683              		.section	.rodata.str1.4,"aMS",%progbits,1
 684              		.align	2
 685              	.LC1:
 686 0000 5E5E5E5E 		.ascii	"^^^^^^^^ Final Project: Noemi Gozzi, Lorenzo Franci"
ARM GAS  C:\Users\Lorenzo\AppData\Local\Temp\ccYoD4lh.s 			page 18


 686      5E5E5E5E 
 686      2046696E 
 686      616C2050 
 686      726F6A65 
 687 0033 6F6C6920 		.ascii	"oli ^^^^^^^^\015\012\012\000"
 687      5E5E5E5E 
 687      5E5E5E5E 
 687      0D0A0A00 
 688 0043 00       		.space	1
 689              	.LC2:
 690 0044 2A2A2A2A 		.ascii	"**************** TEST EEPROM and LIS3DH CONFIGURATI"
 690      2A2A2A2A 
 690      2A2A2A2A 
 690      2A2A2A2A 
 690      20544553 
 691 0077 4F4E2A2A 		.ascii	"ON******************* \015\012\012\000"
 691      2A2A2A2A 
 691      2A2A2A2A 
 691      2A2A2A2A 
 691      2A2A2A2A 
 692 0091 000000   		.space	3
 693              	.LC3:
 694 0094 202D2D3E 		.ascii	" --> EEPROM Test Read = %d %d %d, expected 15 -32 2"
 694      20454550 
 694      524F4D20 
 694      54657374 
 694      20526561 
 695 00c7 35380D0A 		.ascii	"58\015\012\012\000"
 695      0A00
 696 00cd 000000   		.space	3
 697              	.LC4:
 698 00d0 202D2D3E 		.ascii	" --> LIS3DH WHO I AM REGISTER = 0x%02X\015\012\000"
 698      204C4953 
 698      33444820 
 698      57484F20 
 698      4920414D 
 699 00f9 000000   		.space	3
 700              	.LC5:
 701 00fc 202D2D3E 		.ascii	" --> LIS3DH CTRL REGISTER 1= 0x%02X\015\012\000"
 701      204C4953 
 701      33444820 
 701      4354524C 
 701      20524547 
 702 0122 0000     		.space	2
 703              	.LC6:
 704 0124 202D2D3E 		.ascii	" --> LIS3DH CTRL REGISTER 4= 0x%02X\015\012\000"
 704      204C4953 
 704      33444820 
 704      4354524C 
 704      20524547 
 705 014a 0000     		.space	2
 706              	.LC7:
 707 014c 202D2D3E 		.ascii	" --> LIS3DH CTRL REGISTER 5= 0x%02X\015\012\000"
 707      204C4953 
 707      33444820 
 707      4354524C 
 707      20524547 
ARM GAS  C:\Users\Lorenzo\AppData\Local\Temp\ccYoD4lh.s 			page 19


 708 0172 0000     		.space	2
 709              	.LC8:
 710 0174 202D2D3E 		.ascii	" --> LIS3DH FIFO CTRL REGISTER (BYPASS mode) = 0x%0"
 710      204C4953 
 710      33444820 
 710      4649464F 
 710      20435452 
 711 01a7 32580D0A 		.ascii	"2X\015\012\000"
 711      00
 712              	.LC9:
 713 01ac 202D2D3E 		.ascii	" --> LIS3DH FIFO CTRL REGISTER (FIFO mode) = 0x%02X"
 713      204C4953 
 713      33444820 
 713      4649464F 
 713      20435452 
 714 01df 0D0A00   		.ascii	"\015\012\000"
 715 01e2 0000     		.space	2
 716              	.LC10:
 717 01e4 202D2D3E 		.ascii	" --> LIS3DH CTRL REGISTER 3= 0x%02X\015\012\000"
 717      204C4953 
 717      33444820 
 717      4354524C 
 717      20524547 
 718 020a 0000     		.space	2
 719              	.LC11:
 720 020c 202D2D3E 		.ascii	" --> LIS3DH INT 1 CFG REGISTER= 0x%02X\015\012\000"
 720      204C4953 
 720      33444820 
 720      494E5420 
 720      31204346 
 721 0235 000000   		.space	3
 722              	.LC12:
 723 0238 202D2D3E 		.ascii	" --> LIS3DH INT1 THS REGISTER= 0x%02X\015\012\000"
 723      204C4953 
 723      33444820 
 723      494E5431 
 723      20544853 
 724              	.LC13:
 725 0260 202D2D3E 		.ascii	" --> LIS3DH DURATION REGISTER= 0x%02X\015\012\000"
 725      204C4953 
 725      33444820 
 725      44555241 
 725      54494F4E 
 726              	.LC14:
 727 0288 4C41204D 		.ascii	"LA MEMI E' LA MIGLIORE CHE CI SIA\000"
 727      454D4920 
 727      4527204C 
 727      41204D49 
 727      474C494F 
 728 02aa 0000     		.space	2
 729              	.LC15:
 730 02ac 54485245 		.ascii	"THRESH 0x%02X\015\012\000"
 730      53482030 
 730      78253032 
 730      580D0A00 
 731              	.LC16:
 732 02bc 583A2025 		.ascii	"X: %d, Y: %d, Z: %d [mg]\015\012\000"
ARM GAS  C:\Users\Lorenzo\AppData\Local\Temp\ccYoD4lh.s 			page 20


 732      642C2059 
 732      3A202564 
 732      2C205A3A 
 732      20256420 
 733              		.text
 734              	.Letext0:
 735              		.file 2 "c:\\program files (x86)\\cypress\\psoc creator\\4.3\\psoc creator\\import\\gnu\\arm\\5.4.
 736              		.file 3 "c:\\program files (x86)\\cypress\\psoc creator\\4.3\\psoc creator\\import\\gnu\\arm\\5.4.
 737              		.file 4 "Generated_Source\\PSoC5/cytypes.h"
 738              		.file 5 "Generated_Source\\PSoC5/core_cm3.h"
 739              		.file 6 "InterruptRoutines.h"
 740              		.file 7 "LIS3DH_SPI.h"
 741              		.file 8 "c:\\program files (x86)\\cypress\\psoc creator\\4.3\\psoc creator\\import\\gnu\\arm\\5.4.
 742              		.file 9 "Generated_Source\\PSoC5/UART_1.h"
 743              		.file 10 "25LC256.h"
 744              		.file 11 "RGBLedDriver.h"
 745              		.file 12 "Generated_Source\\PSoC5/SPIM_1.h"
 746              		.file 13 "Generated_Source\\PSoC5/SPIM_2.h"
 747              		.file 14 "Generated_Source\\PSoC5/ADC_DelSig.h"
 748              		.file 15 "Generated_Source\\PSoC5/CyLib.h"
 749              		.file 16 "Generated_Source\\PSoC5/isr_ACC.h"
 750              		.file 17 "Generated_Source\\PSoC5/isr_DEBOUNCER.h"
 751              		.file 18 "Generated_Source\\PSoC5/isr_TIMER.h"
 752              		.file 19 "Generated_Source\\PSoC5/isr_BLINKING.h"
 753              		.file 20 "Generated_Source\\PSoC5/isr_positive.h"
 754              		.file 21 "Generated_Source\\PSoC5/isr_EnableDisable.h"
 755              		.file 22 "Generated_Source\\PSoC5/Pin_EnableDisable.h"