ARM GAS  C:\Users\Lorenzo\AppData\Local\Temp\ccwgM5Fb.s 			page 1


   1              		.syntax unified
   2              		.cpu cortex-m3
   3              		.fpu softvfp
   4              		.eabi_attribute 20, 1
   5              		.eabi_attribute 21, 1
   6              		.eabi_attribute 23, 3
   7              		.eabi_attribute 24, 1
   8              		.eabi_attribute 25, 1
   9              		.eabi_attribute 26, 1
  10              		.eabi_attribute 30, 1
  11              		.eabi_attribute 34, 1
  12              		.eabi_attribute 18, 4
  13              		.thumb
  14              		.syntax unified
  15              		.file	"RGBLedDriver.c"
  16              		.text
  17              	.Ltext0:
  18              		.cfi_sections	.debug_frame
  19              		.section	.text.RGBLed_WriteRed,"ax",%progbits
  20              		.align	2
  21              		.thumb
  22              		.thumb_func
  23              		.type	RGBLed_WriteRed, %function
  24              	RGBLed_WriteRed:
  25              	.LFB66:
  26              		.file 1 "RGBLedDriver.c"
   1:RGBLedDriver.c **** /**
   2:RGBLedDriver.c **** *   \brief Source code for RGB Led Driver.
   3:RGBLedDriver.c **** */
   4:RGBLedDriver.c **** 
   5:RGBLedDriver.c **** #include "RGBLedDriver.h"
   6:RGBLedDriver.c **** 
   7:RGBLedDriver.c **** static void RGBLed_WriteRed(uint8_t red);       // Write new red value
   8:RGBLedDriver.c **** static void RGBLed_WriteGreen(uint8_t green);   // Write new green value
   9:RGBLedDriver.c **** static void RGBLed_WriteBlu(uint8_t blu);       // Write new blu value
  10:RGBLedDriver.c **** 
  11:RGBLedDriver.c **** void RGBLed_Start(void)
  12:RGBLedDriver.c **** {
  13:RGBLedDriver.c ****     // Start PWM Components
  14:RGBLedDriver.c ****     PWM_RG_Start(); // Start PWM connected to red and green channels
  15:RGBLedDriver.c ****     PWM_B_Start();  // Start PWM connected to blu channel
  16:RGBLedDriver.c **** }
  17:RGBLedDriver.c **** 
  18:RGBLedDriver.c **** void RGBLed_Stop(void)
  19:RGBLedDriver.c **** {
  20:RGBLedDriver.c ****     // Stop PWM Components
  21:RGBLedDriver.c ****     PWM_RG_Stop(); // Stop PWM connected to red and green channels
  22:RGBLedDriver.c ****     PWM_B_Stop();  // Stop PWM connected to blu channel
  23:RGBLedDriver.c **** }
  24:RGBLedDriver.c **** 
  25:RGBLedDriver.c **** void RGBLed_WriteColor(uint8_t red, uint8_t green, uint8_t blue)
  26:RGBLedDriver.c **** {
  27:RGBLedDriver.c ****     RGBLed_WriteRed(red);
  28:RGBLedDriver.c ****     RGBLed_WriteGreen(green);
  29:RGBLedDriver.c ****     RGBLed_WriteBlu(blue);
  30:RGBLedDriver.c **** }
  31:RGBLedDriver.c **** 
ARM GAS  C:\Users\Lorenzo\AppData\Local\Temp\ccwgM5Fb.s 			page 2


  32:RGBLedDriver.c **** static void RGBLed_WriteRed(uint8_t red)
  33:RGBLedDriver.c **** {
  27              		.loc 1 33 0
  28              		.cfi_startproc
  29              		@ args = 0, pretend = 0, frame = 0
  30              		@ frame_needed = 0, uses_anonymous_args = 0
  31              	.LVL0:
  32 0000 08B5     		push	{r3, lr}
  33              		.cfi_def_cfa_offset 8
  34              		.cfi_offset 3, -8
  35              		.cfi_offset 14, -4
  34:RGBLedDriver.c ****     PWM_RG_WriteCompare1(255-red);
  36              		.loc 1 34 0
  37 0002 C043     		mvns	r0, r0
  38              	.LVL1:
  39 0004 C0B2     		uxtb	r0, r0
  40 0006 FFF7FEFF 		bl	PWM_RG_WriteCompare1
  41              	.LVL2:
  42 000a 08BD     		pop	{r3, pc}
  43              		.cfi_endproc
  44              	.LFE66:
  45              		.size	RGBLed_WriteRed, .-RGBLed_WriteRed
  46              		.section	.text.RGBLed_WriteGreen,"ax",%progbits
  47              		.align	2
  48              		.thumb
  49              		.thumb_func
  50              		.type	RGBLed_WriteGreen, %function
  51              	RGBLed_WriteGreen:
  52              	.LFB67:
  35:RGBLedDriver.c **** }
  36:RGBLedDriver.c **** 
  37:RGBLedDriver.c **** static void RGBLed_WriteGreen(uint8_t green)
  38:RGBLedDriver.c **** {
  53              		.loc 1 38 0
  54              		.cfi_startproc
  55              		@ args = 0, pretend = 0, frame = 0
  56              		@ frame_needed = 0, uses_anonymous_args = 0
  57              	.LVL3:
  58 0000 08B5     		push	{r3, lr}
  59              		.cfi_def_cfa_offset 8
  60              		.cfi_offset 3, -8
  61              		.cfi_offset 14, -4
  39:RGBLedDriver.c ****     PWM_RG_WriteCompare2(255-green);
  62              		.loc 1 39 0
  63 0002 C043     		mvns	r0, r0
  64              	.LVL4:
  65 0004 C0B2     		uxtb	r0, r0
  66 0006 FFF7FEFF 		bl	PWM_RG_WriteCompare2
  67              	.LVL5:
  68 000a 08BD     		pop	{r3, pc}
  69              		.cfi_endproc
  70              	.LFE67:
  71              		.size	RGBLed_WriteGreen, .-RGBLed_WriteGreen
  72              		.section	.text.RGBLed_WriteBlu,"ax",%progbits
  73              		.align	2
  74              		.thumb
  75              		.thumb_func
ARM GAS  C:\Users\Lorenzo\AppData\Local\Temp\ccwgM5Fb.s 			page 3


  76              		.type	RGBLed_WriteBlu, %function
  77              	RGBLed_WriteBlu:
  78              	.LFB68:
  40:RGBLedDriver.c **** }
  41:RGBLedDriver.c **** 
  42:RGBLedDriver.c **** static void RGBLed_WriteBlu(uint8_t blu)
  43:RGBLedDriver.c **** {
  79              		.loc 1 43 0
  80              		.cfi_startproc
  81              		@ args = 0, pretend = 0, frame = 0
  82              		@ frame_needed = 0, uses_anonymous_args = 0
  83              	.LVL6:
  84 0000 08B5     		push	{r3, lr}
  85              		.cfi_def_cfa_offset 8
  86              		.cfi_offset 3, -8
  87              		.cfi_offset 14, -4
  44:RGBLedDriver.c ****     PWM_B_WriteCompare(255-blu);
  88              		.loc 1 44 0
  89 0002 C043     		mvns	r0, r0
  90              	.LVL7:
  91 0004 C0B2     		uxtb	r0, r0
  92 0006 FFF7FEFF 		bl	PWM_B_WriteCompare
  93              	.LVL8:
  94 000a 08BD     		pop	{r3, pc}
  95              		.cfi_endproc
  96              	.LFE68:
  97              		.size	RGBLed_WriteBlu, .-RGBLed_WriteBlu
  98              		.section	.text.RGBLed_Start,"ax",%progbits
  99              		.align	2
 100              		.global	RGBLed_Start
 101              		.thumb
 102              		.thumb_func
 103              		.type	RGBLed_Start, %function
 104              	RGBLed_Start:
 105              	.LFB63:
  12:RGBLedDriver.c ****     // Start PWM Components
 106              		.loc 1 12 0
 107              		.cfi_startproc
 108              		@ args = 0, pretend = 0, frame = 0
 109              		@ frame_needed = 0, uses_anonymous_args = 0
 110 0000 08B5     		push	{r3, lr}
 111              		.cfi_def_cfa_offset 8
 112              		.cfi_offset 3, -8
 113              		.cfi_offset 14, -4
  14:RGBLedDriver.c ****     PWM_B_Start();  // Start PWM connected to blu channel
 114              		.loc 1 14 0
 115 0002 FFF7FEFF 		bl	PWM_RG_Start
 116              	.LVL9:
  15:RGBLedDriver.c **** }
 117              		.loc 1 15 0
 118 0006 FFF7FEFF 		bl	PWM_B_Start
 119              	.LVL10:
 120 000a 08BD     		pop	{r3, pc}
 121              		.cfi_endproc
 122              	.LFE63:
 123              		.size	RGBLed_Start, .-RGBLed_Start
 124              		.section	.text.RGBLed_Stop,"ax",%progbits
ARM GAS  C:\Users\Lorenzo\AppData\Local\Temp\ccwgM5Fb.s 			page 4


 125              		.align	2
 126              		.global	RGBLed_Stop
 127              		.thumb
 128              		.thumb_func
 129              		.type	RGBLed_Stop, %function
 130              	RGBLed_Stop:
 131              	.LFB64:
  19:RGBLedDriver.c ****     // Stop PWM Components
 132              		.loc 1 19 0
 133              		.cfi_startproc
 134              		@ args = 0, pretend = 0, frame = 0
 135              		@ frame_needed = 0, uses_anonymous_args = 0
 136 0000 08B5     		push	{r3, lr}
 137              		.cfi_def_cfa_offset 8
 138              		.cfi_offset 3, -8
 139              		.cfi_offset 14, -4
  21:RGBLedDriver.c ****     PWM_B_Stop();  // Stop PWM connected to blu channel
 140              		.loc 1 21 0
 141 0002 FFF7FEFF 		bl	PWM_RG_Stop
 142              	.LVL11:
  22:RGBLedDriver.c **** }
 143              		.loc 1 22 0
 144 0006 FFF7FEFF 		bl	PWM_B_Stop
 145              	.LVL12:
 146 000a 08BD     		pop	{r3, pc}
 147              		.cfi_endproc
 148              	.LFE64:
 149              		.size	RGBLed_Stop, .-RGBLed_Stop
 150              		.section	.text.RGBLed_WriteColor,"ax",%progbits
 151              		.align	2
 152              		.global	RGBLed_WriteColor
 153              		.thumb
 154              		.thumb_func
 155              		.type	RGBLed_WriteColor, %function
 156              	RGBLed_WriteColor:
 157              	.LFB65:
  26:RGBLedDriver.c ****     RGBLed_WriteRed(red);
 158              		.loc 1 26 0
 159              		.cfi_startproc
 160              		@ args = 0, pretend = 0, frame = 0
 161              		@ frame_needed = 0, uses_anonymous_args = 0
 162              	.LVL13:
 163 0000 38B5     		push	{r3, r4, r5, lr}
 164              		.cfi_def_cfa_offset 16
 165              		.cfi_offset 3, -16
 166              		.cfi_offset 4, -12
 167              		.cfi_offset 5, -8
 168              		.cfi_offset 14, -4
 169 0002 0D46     		mov	r5, r1
 170 0004 1446     		mov	r4, r2
  27:RGBLedDriver.c ****     RGBLed_WriteGreen(green);
 171              		.loc 1 27 0
 172 0006 FFF7FEFF 		bl	RGBLed_WriteRed
 173              	.LVL14:
  28:RGBLedDriver.c ****     RGBLed_WriteBlu(blue);
 174              		.loc 1 28 0
 175 000a 2846     		mov	r0, r5
ARM GAS  C:\Users\Lorenzo\AppData\Local\Temp\ccwgM5Fb.s 			page 5


 176 000c FFF7FEFF 		bl	RGBLed_WriteGreen
 177              	.LVL15:
  29:RGBLedDriver.c **** }
 178              		.loc 1 29 0
 179 0010 2046     		mov	r0, r4
 180 0012 FFF7FEFF 		bl	RGBLed_WriteBlu
 181              	.LVL16:
 182 0016 38BD     		pop	{r3, r4, r5, pc}
 183              		.cfi_endproc
 184              	.LFE65:
 185              		.size	RGBLed_WriteColor, .-RGBLed_WriteColor
 186              		.text
 187              	.Letext0:
 188              		.file 2 "c:\\program files (x86)\\cypress\\psoc creator\\4.3\\psoc creator\\import\\gnu\\arm\\5.4.
 189              		.file 3 "c:\\program files (x86)\\cypress\\psoc creator\\4.3\\psoc creator\\import\\gnu\\arm\\5.4.
 190              		.file 4 "Generated_Source\\PSoC5/PWM_RG.h"
 191              		.file 5 "Generated_Source\\PSoC5/PWM_B.h"
 192              		.file 6 "Generated_Source\\PSoC5/core_cm3.h"