ARM GAS  C:\Users\noemi\AppData\Local\Temp\ccseXZMX.s 			page 1


   1              		.syntax unified
   2              		.cpu cortex-m3
   3              		.fpu softvfp
   4              		.eabi_attribute 20, 1
   5              		.eabi_attribute 21, 1
   6              		.eabi_attribute 23, 3
   7              		.eabi_attribute 24, 1
   8              		.eabi_attribute 25, 1
   9              		.eabi_attribute 26, 1
  10              		.eabi_attribute 30, 1
  11              		.eabi_attribute 34, 1
  12              		.eabi_attribute 18, 4
  13              		.thumb
  14              		.syntax unified
  15              		.file	"SPI_Interface.c"
  16              		.text
  17              	.Ltext0:
  18              		.cfi_sections	.debug_frame
  19              		.section	.text.SPI_Interface_tradeByte,"ax",%progbits
  20              		.align	2
  21              		.global	SPI_Interface_tradeByte
  22              		.thumb
  23              		.thumb_func
  24              		.type	SPI_Interface_tradeByte, %function
  25              	SPI_Interface_tradeByte:
  26              	.LFB0:
  27              		.file 1 "SPI_Interface.c"
   1:SPI_Interface.c **** /**
   2:SPI_Interface.c ****  * @file SPI_Interface.c
   3:SPI_Interface.c ****  * @brief Functions required to interface with the SPI MASTER (SPIM).
   4:SPI_Interface.c ****  * 
   5:SPI_Interface.c ****  * This source code file contains macros and functions to interface
   6:SPI_Interface.c ****  * with the SPI Master (SPIM) of the PSoC.
   7:SPI_Interface.c ****  *
   8:SPI_Interface.c ****  * @author Mattia Pesenti
   9:SPI_Interface.c ****  * @date April 9, 2020
  10:SPI_Interface.c **** */
  11:SPI_Interface.c **** 
  12:SPI_Interface.c **** /*											 
  13:SPI_Interface.c ****  * NOTE: in the .h Lib of the SPI Slave     		   *
  14:SPI_Interface.c ****  *       you need to define SLAVE_CS_Write  		   *
  15:SPI_Interface.c ****  *       with the name of the Chip Select    		   * 
  16:SPI_Interface.c ****  *       pin (as defined in the Top Design)  		   *
  17:SPI_Interface.c ****  * E.g.: #define SLAVE_CS_Write CS_1_Write (default)   *
  18:SPI_Interface.c **** */
  19:SPI_Interface.c **** 
  20:SPI_Interface.c **** #include "SPI_Interface.h"
  21:SPI_Interface.c **** 
  22:SPI_Interface.c **** #ifndef SLAVE_CS_Write
  23:SPI_Interface.c ****     #define SLAVE_CS_Write CS_1_Write
  24:SPI_Interface.c **** #endif
  25:SPI_Interface.c **** 
  26:SPI_Interface.c **** /*
  27:SPI_Interface.c **** * @brief Full-Duplex, Single-Operation 1-Byte Trade
  28:SPI_Interface.c **** */
  29:SPI_Interface.c **** uint8_t SPI_Interface_tradeByte(uint8_t byte) {
  28              		.loc 1 29 0
ARM GAS  C:\Users\noemi\AppData\Local\Temp\ccseXZMX.s 			page 2


  29              		.cfi_startproc
  30              		@ args = 0, pretend = 0, frame = 0
  31              		@ frame_needed = 0, uses_anonymous_args = 0
  32              	.LVL0:
  33 0000 10B5     		push	{r4, lr}
  34              		.cfi_def_cfa_offset 8
  35              		.cfi_offset 4, -8
  36              		.cfi_offset 14, -4
  37 0002 0446     		mov	r4, r0
  30:SPI_Interface.c **** 	
  31:SPI_Interface.c **** 	/* Enable the Slave */
  32:SPI_Interface.c **** 	SLAVE_CS_Write(0);
  38              		.loc 1 32 0
  39 0004 0020     		movs	r0, #0
  40              	.LVL1:
  41 0006 FFF7FEFF 		bl	CS_1_Write
  42              	.LVL2:
  33:SPI_Interface.c **** 	
  34:SPI_Interface.c **** 	/* Load the TX Buffer */
  35:SPI_Interface.c **** 	SPIM_1_WriteTxData(byte);
  43              		.loc 1 35 0
  44 000a 2046     		mov	r0, r4
  45 000c FFF7FEFF 		bl	SPIM_1_WriteTxData
  46              	.LVL3:
  47              	.L2:
  36:SPI_Interface.c **** 	
  37:SPI_Interface.c **** 	/* Wait for TX */
  38:SPI_Interface.c ****     while( !(SPIM_1_ReadTxStatus() & SPIM_1_STS_BYTE_COMPLETE) );
  48              		.loc 1 38 0 discriminator 1
  49 0010 FFF7FEFF 		bl	SPIM_1_ReadTxStatus
  50              	.LVL4:
  51 0014 10F0080F 		tst	r0, #8
  52 0018 FAD0     		beq	.L2
  39:SPI_Interface.c **** 	
  40:SPI_Interface.c **** 	/* Read the RX Buffer */
  41:SPI_Interface.c **** 	uint8_t data = SPIM_1_ReadRxData();
  53              		.loc 1 41 0
  54 001a FFF7FEFF 		bl	SPIM_1_ReadRxData
  55              	.LVL5:
  56 001e 0446     		mov	r4, r0
  57              	.LVL6:
  42:SPI_Interface.c **** 	
  43:SPI_Interface.c **** 	/* Disable the Slave */
  44:SPI_Interface.c **** 	SLAVE_CS_Write(1);
  58              		.loc 1 44 0
  59 0020 0120     		movs	r0, #1
  60 0022 FFF7FEFF 		bl	CS_1_Write
  61              	.LVL7:
  45:SPI_Interface.c **** 	
  46:SPI_Interface.c **** 	return data;
  47:SPI_Interface.c ****     
  48:SPI_Interface.c **** }
  62              		.loc 1 48 0
  63 0026 2046     		mov	r0, r4
  64 0028 10BD     		pop	{r4, pc}
  65              		.cfi_endproc
  66              	.LFE0:
ARM GAS  C:\Users\noemi\AppData\Local\Temp\ccseXZMX.s 			page 3


  67              		.size	SPI_Interface_tradeByte, .-SPI_Interface_tradeByte
  68              		.section	.text.SPI_Interface_ReadByte,"ax",%progbits
  69              		.align	2
  70              		.global	SPI_Interface_ReadByte
  71              		.thumb
  72              		.thumb_func
  73              		.type	SPI_Interface_ReadByte, %function
  74              	SPI_Interface_ReadByte:
  75              	.LFB1:
  49:SPI_Interface.c **** 
  50:SPI_Interface.c **** 
  51:SPI_Interface.c **** /*
  52:SPI_Interface.c **** * @brief RX-only, Dual-Operation 1-Byte READ
  53:SPI_Interface.c **** */
  54:SPI_Interface.c **** uint8_t SPI_Interface_ReadByte(uint8_t byteTX) {
  76              		.loc 1 54 0
  77              		.cfi_startproc
  78              		@ args = 0, pretend = 0, frame = 0
  79              		@ frame_needed = 0, uses_anonymous_args = 0
  80              	.LVL8:
  81 0000 10B5     		push	{r4, lr}
  82              		.cfi_def_cfa_offset 8
  83              		.cfi_offset 4, -8
  84              		.cfi_offset 14, -4
  85 0002 0446     		mov	r4, r0
  55:SPI_Interface.c **** 	
  56:SPI_Interface.c **** 	/* Enable the Slave */
  57:SPI_Interface.c **** 	SLAVE_CS_Write(0);
  86              		.loc 1 57 0
  87 0004 0020     		movs	r0, #0
  88              	.LVL9:
  89 0006 FFF7FEFF 		bl	CS_1_Write
  90              	.LVL10:
  58:SPI_Interface.c ****     
  59:SPI_Interface.c ****     SPIM_1_WriteTxData(byteTX);
  91              		.loc 1 59 0
  92 000a 2046     		mov	r0, r4
  93 000c FFF7FEFF 		bl	SPIM_1_WriteTxData
  94              	.LVL11:
  60:SPI_Interface.c ****     
  61:SPI_Interface.c ****     SPIM_1_WriteTxData(SPI_DUMMY_BYTE);
  95              		.loc 1 61 0
  96 0010 0020     		movs	r0, #0
  97 0012 FFF7FEFF 		bl	SPIM_1_WriteTxData
  98              	.LVL12:
  99              	.L5:
  62:SPI_Interface.c ****     while( !(SPIM_1_ReadTxStatus() & SPIM_1_STS_SPI_DONE) ) ;
 100              		.loc 1 62 0 discriminator 1
 101 0016 FFF7FEFF 		bl	SPIM_1_ReadTxStatus
 102              	.LVL13:
 103 001a 10F0010F 		tst	r0, #1
 104 001e FAD0     		beq	.L5
  63:SPI_Interface.c ****     //first read it has no sense
  64:SPI_Interface.c ****     SPIM_1_ReadRxData();
 105              		.loc 1 64 0
 106 0020 FFF7FEFF 		bl	SPIM_1_ReadRxData
 107              	.LVL14:
ARM GAS  C:\Users\noemi\AppData\Local\Temp\ccseXZMX.s 			page 4


  65:SPI_Interface.c ****     uint8_t byteRX = SPIM_1_ReadRxData();
 108              		.loc 1 65 0
 109 0024 FFF7FEFF 		bl	SPIM_1_ReadRxData
 110              	.LVL15:
 111 0028 0446     		mov	r4, r0
 112              	.LVL16:
  66:SPI_Interface.c ****         
  67:SPI_Interface.c ****     
  68:SPI_Interface.c ****     SLAVE_CS_Write(1);
 113              		.loc 1 68 0
 114 002a 0120     		movs	r0, #1
 115 002c FFF7FEFF 		bl	CS_1_Write
 116              	.LVL17:
  69:SPI_Interface.c ****     return byteRX;
  70:SPI_Interface.c ****     
  71:SPI_Interface.c **** 	
  72:SPI_Interface.c **** 	
  73:SPI_Interface.c **** }
 117              		.loc 1 73 0
 118 0030 2046     		mov	r0, r4
 119 0032 10BD     		pop	{r4, pc}
 120              		.cfi_endproc
 121              	.LFE1:
 122              		.size	SPI_Interface_ReadByte, .-SPI_Interface_ReadByte
 123              		.section	.text.SPI_Interface_Multi_Trade,"ax",%progbits
 124              		.align	2
 125              		.global	SPI_Interface_Multi_Trade
 126              		.thumb
 127              		.thumb_func
 128              		.type	SPI_Interface_Multi_Trade, %function
 129              	SPI_Interface_Multi_Trade:
 130              	.LFB2:
  74:SPI_Interface.c **** 
  75:SPI_Interface.c **** 
  76:SPI_Interface.c **** /*
  77:SPI_Interface.c **** * @brief Full-Duplex, Multi-Byte Trade (RX/TX)
  78:SPI_Interface.c **** */
  79:SPI_Interface.c **** void SPI_Interface_Multi_Trade(uint8_t* dataTX, uint8_t* dataRX, uint8_t nBytes) {
 131              		.loc 1 79 0
 132              		.cfi_startproc
 133              		@ args = 0, pretend = 0, frame = 0
 134              		@ frame_needed = 0, uses_anonymous_args = 0
 135              		@ link register save eliminated.
 136              	.LVL18:
 137 0000 7047     		bx	lr
 138              		.cfi_endproc
 139              	.LFE2:
 140              		.size	SPI_Interface_Multi_Trade, .-SPI_Interface_Multi_Trade
 141 0002 00BF     		.section	.text.SPI_Interface_Multi_RW,"ax",%progbits
 142              		.align	2
 143              		.global	SPI_Interface_Multi_RW
 144              		.thumb
 145              		.thumb_func
 146              		.type	SPI_Interface_Multi_RW, %function
 147              	SPI_Interface_Multi_RW:
 148              	.LFB3:
  80:SPI_Interface.c **** 	
ARM GAS  C:\Users\noemi\AppData\Local\Temp\ccseXZMX.s 			page 5


  81:SPI_Interface.c ****     
  82:SPI_Interface.c **** 	
  83:SPI_Interface.c **** }
  84:SPI_Interface.c **** 
  85:SPI_Interface.c **** /*
  86:SPI_Interface.c **** * @brief RX-only, Dual-Operation Multi-Byte READ/WRITE
  87:SPI_Interface.c **** */
  88:SPI_Interface.c **** void SPI_Interface_Multi_RW(uint8_t* dataTX, uint8_t bytesTX, uint8_t* dataRX, uint8_t bytesRX, uin
 149              		.loc 1 88 0
 150              		.cfi_startproc
 151              		@ args = 4, pretend = 0, frame = 8
 152              		@ frame_needed = 0, uses_anonymous_args = 0
 153              	.LVL19:
 154              		.loc 1 88 0
 155 0000 2DE9F047 		push	{r4, r5, r6, r7, r8, r9, r10, lr}
 156              		.cfi_def_cfa_offset 32
 157              		.cfi_offset 4, -32
 158              		.cfi_offset 5, -28
 159              		.cfi_offset 6, -24
 160              		.cfi_offset 7, -20
 161              		.cfi_offset 8, -16
 162              		.cfi_offset 9, -12
 163              		.cfi_offset 10, -8
 164              		.cfi_offset 14, -4
 165 0004 82B0     		sub	sp, sp, #8
 166              		.cfi_def_cfa_offset 40
 167 0006 0646     		mov	r6, r0
 168 0008 0C46     		mov	r4, r1
 169 000a 9046     		mov	r8, r2
 170 000c 9A46     		mov	r10, r3
 171 000e 9DF82890 		ldrb	r9, [sp, #40]	@ zero_extendqisi2
  89:SPI_Interface.c **** 	
  90:SPI_Interface.c ****     if (CS_value==1){
 172              		.loc 1 90 0
 173 0012 B9F1010F 		cmp	r9, #1
 174 0016 03D1     		bne	.L9
  91:SPI_Interface.c ****         CS_1_Write(0);
 175              		.loc 1 91 0
 176 0018 0020     		movs	r0, #0
 177              	.LVL20:
 178 001a FFF7FEFF 		bl	CS_1_Write
 179              	.LVL21:
 180 001e 05E0     		b	.L10
 181              	.LVL22:
 182              	.L9:
  92:SPI_Interface.c ****     }
  93:SPI_Interface.c ****     else if (CS_value==2){
 183              		.loc 1 93 0
 184 0020 B9F1020F 		cmp	r9, #2
 185 0024 02D1     		bne	.L10
  94:SPI_Interface.c ****         CS_2_Write(0);
 186              		.loc 1 94 0
 187 0026 0020     		movs	r0, #0
 188              	.LVL23:
 189 0028 FFF7FEFF 		bl	CS_2_Write
 190              	.LVL24:
 191              	.L10:
ARM GAS  C:\Users\noemi\AppData\Local\Temp\ccseXZMX.s 			page 6


  95:SPI_Interface.c ****     }
  96:SPI_Interface.c **** //	        /* Enable the Slave */
  97:SPI_Interface.c ****         SLAVE_CS_Write(0);
 192              		.loc 1 97 0
 193 002c 0020     		movs	r0, #0
 194 002e FFF7FEFF 		bl	CS_1_Write
 195              	.LVL25:
  98:SPI_Interface.c ****             
  99:SPI_Interface.c ****         int8_t count = bytesTX, index = 0;
 196              		.loc 1 99 0
 197 0032 64B2     		sxtb	r4, r4
 198              	.LVL26:
 199 0034 0025     		movs	r5, #0
 100:SPI_Interface.c ****         	
 101:SPI_Interface.c ****         /* Transmit Data */
 102:SPI_Interface.c ****         while ( count > 0 ) {
 200              		.loc 1 102 0
 201 0036 11E0     		b	.L11
 202              	.LVL27:
 203              	.L13:
 103:SPI_Interface.c ****                 
 104:SPI_Interface.c ****         	/* Load the TX buffer with Data*/
 105:SPI_Interface.c ****                 SPIM_1_PutArray(&dataTX[index*SPI_TxBufferSize], (count > SPI_TxBufferSize ? SPI_Tx
 204              		.loc 1 105 0
 205 0038 2146     		mov	r1, r4
 206 003a 082C     		cmp	r4, #8
 207 003c A8BF     		it	ge
 208 003e 0821     		movge	r1, #8
 209 0040 C9B2     		uxtb	r1, r1
 210 0042 06EBC500 		add	r0, r6, r5, lsl #3
 211 0046 FFF7FEFF 		bl	SPIM_1_PutArray
 212              	.LVL28:
 213              	.L12:
 106:SPI_Interface.c ****                 /* Wait for TX */
 107:SPI_Interface.c ****                 while( !(SPIM_1_ReadTxStatus() & SPIM_1_STS_SPI_DONE) );
 214              		.loc 1 107 0 discriminator 1
 215 004a FFF7FEFF 		bl	SPIM_1_ReadTxStatus
 216              	.LVL29:
 217 004e 10F0010F 		tst	r0, #1
 218 0052 FAD0     		beq	.L12
 108:SPI_Interface.c ****                 
 109:SPI_Interface.c ****                 /* Update count */
 110:SPI_Interface.c ****                 count -= SPI_TxBufferSize;
 219              		.loc 1 110 0
 220 0054 083C     		subs	r4, r4, #8
 221              	.LVL30:
 222 0056 64B2     		sxtb	r4, r4
 223              	.LVL31:
 111:SPI_Interface.c ****                 index++;
 224              		.loc 1 111 0
 225 0058 0135     		adds	r5, r5, #1
 226              	.LVL32:
 227 005a 6DB2     		sxtb	r5, r5
 228              	.LVL33:
 229              	.L11:
 102:SPI_Interface.c ****                 
 230              		.loc 1 102 0
ARM GAS  C:\Users\noemi\AppData\Local\Temp\ccseXZMX.s 			page 7


 231 005c 002C     		cmp	r4, #0
 232 005e EBDC     		bgt	.L13
 112:SPI_Interface.c ****                
 113:SPI_Interface.c ****         }
 114:SPI_Interface.c ****             
 115:SPI_Interface.c ****         /* Clear the RX Buffer */
 116:SPI_Interface.c ****         SPIM_1_ClearFIFO();
 233              		.loc 1 116 0
 234 0060 FFF7FEFF 		bl	SPIM_1_ClearFIFO
 235              	.LVL34:
 117:SPI_Interface.c ****         SPIM_1_ClearRxBuffer();
 236              		.loc 1 117 0
 237 0064 FFF7FEFF 		bl	SPIM_1_ClearRxBuffer
 238              	.LVL35:
 118:SPI_Interface.c ****             
 119:SPI_Interface.c ****         /* Init the Dummy TX Buffer */
 120:SPI_Interface.c ****         uint8_t dummyTX[SPI_RxBufferSize];
 121:SPI_Interface.c ****         memset(dummyTX, SPI_DUMMY_BYTE, SPI_RxBufferSize);
 239              		.loc 1 121 0
 240 0068 0026     		movs	r6, #0
 241              	.LVL36:
 242 006a 0096     		str	r6, [sp]
 243 006c 0196     		str	r6, [sp, #4]
 122:SPI_Interface.c ****             
 123:SPI_Interface.c ****         /* Update count for RX */
 124:SPI_Interface.c ****         count = bytesRX;
 244              		.loc 1 124 0
 245 006e 4FFA8AFA 		sxtb	r10, r10
 246              	.LVL37:
 125:SPI_Interface.c ****         index = 0;
 126:SPI_Interface.c ****             
 127:SPI_Interface.c ****         /* Get the RX Data */
 128:SPI_Interface.c ****         while ( count > 0 ) {
 247              		.loc 1 128 0
 248 0072 1EE0     		b	.L14
 249              	.LVL38:
 250              	.L18:
 129:SPI_Interface.c ****              
 130:SPI_Interface.c ****                 /* Load the TX buffer with Dummy Bytes*/
 131:SPI_Interface.c ****                 SPIM_1_PutArray(dummyTX, (count > SPI_TxBufferSize ? SPI_TxBufferSize : count));
 251              		.loc 1 131 0
 252 0074 5746     		mov	r7, r10
 253 0076 082F     		cmp	r7, #8
 254 0078 A8BF     		it	ge
 255 007a 0827     		movge	r7, #8
 256 007c F9B2     		uxtb	r1, r7
 257 007e 6846     		mov	r0, sp
 258 0080 FFF7FEFF 		bl	SPIM_1_PutArray
 259              	.LVL39:
 260              	.L15:
 132:SPI_Interface.c ****                 /* Wait for TX */
 133:SPI_Interface.c ****                 while( !(SPIM_1_ReadTxStatus() & SPIM_1_STS_SPI_DONE) );
 261              		.loc 1 133 0 discriminator 1
 262 0084 FFF7FEFF 		bl	SPIM_1_ReadTxStatus
 263              	.LVL40:
 264 0088 10F0010F 		tst	r0, #1
 265 008c FAD0     		beq	.L15
ARM GAS  C:\Users\noemi\AppData\Local\Temp\ccseXZMX.s 			page 8


 266 008e 0024     		movs	r4, #0
 267 0090 07E0     		b	.L16
 268              	.LVL41:
 269              	.L17:
 270              	.LBB2:
 134:SPI_Interface.c ****                 /* Read the RX Buffer */
 135:SPI_Interface.c ****                 for( uint8_t j = 0; j < (count > SPI_TxBufferSize ? SPI_TxBufferSize : count); j++ 
 136:SPI_Interface.c ****                     dataRX[j + index*SPI_RxBufferSize] = SPIM_1_ReadRxData();   
 271              		.loc 1 136 0 discriminator 3
 272 0092 04EBC605 		add	r5, r4, r6, lsl #3
 273 0096 FFF7FEFF 		bl	SPIM_1_ReadRxData
 274              	.LVL42:
 275 009a 08F80500 		strb	r0, [r8, r5]
 135:SPI_Interface.c ****                     dataRX[j + index*SPI_RxBufferSize] = SPIM_1_ReadRxData();   
 276              		.loc 1 135 0 discriminator 3
 277 009e 0134     		adds	r4, r4, #1
 278              	.LVL43:
 279 00a0 E4B2     		uxtb	r4, r4
 280              	.LVL44:
 281              	.L16:
 135:SPI_Interface.c ****                     dataRX[j + index*SPI_RxBufferSize] = SPIM_1_ReadRxData();   
 282              		.loc 1 135 0 is_stmt 0 discriminator 1
 283 00a2 BC42     		cmp	r4, r7
 284 00a4 F5DB     		blt	.L17
 285              	.LBE2:
 137:SPI_Interface.c ****                 }
 138:SPI_Interface.c ****                 
 139:SPI_Interface.c ****                 count -= SPI_RxBufferSize;
 286              		.loc 1 139 0 is_stmt 1
 287 00a6 AAF1080A 		sub	r10, r10, #8
 288              	.LVL45:
 289 00aa 4FFA8AFA 		sxtb	r10, r10
 290              	.LVL46:
 140:SPI_Interface.c ****                 index++;
 291              		.loc 1 140 0
 292 00ae 0136     		adds	r6, r6, #1
 293              	.LVL47:
 294 00b0 76B2     		sxtb	r6, r6
 295              	.LVL48:
 296              	.L14:
 128:SPI_Interface.c ****              
 297              		.loc 1 128 0
 298 00b2 BAF1000F 		cmp	r10, #0
 299 00b6 DDDC     		bgt	.L18
 141:SPI_Interface.c ****                 
 142:SPI_Interface.c ****         }
 143:SPI_Interface.c ****             
 144:SPI_Interface.c ****         /* Disable the Slave */
 145:SPI_Interface.c ****     if (CS_value==1){
 300              		.loc 1 145 0
 301 00b8 B9F1010F 		cmp	r9, #1
 302 00bc 03D1     		bne	.L19
 146:SPI_Interface.c ****         CS_1_Write(1);
 303              		.loc 1 146 0
 304 00be 0120     		movs	r0, #1
 305 00c0 FFF7FEFF 		bl	CS_1_Write
 306              	.LVL49:
ARM GAS  C:\Users\noemi\AppData\Local\Temp\ccseXZMX.s 			page 9


 307 00c4 05E0     		b	.L20
 308              	.L19:
 147:SPI_Interface.c ****     }
 148:SPI_Interface.c ****     else if (CS_value==2){
 309              		.loc 1 148 0
 310 00c6 B9F1020F 		cmp	r9, #2
 311 00ca 02D1     		bne	.L20
 149:SPI_Interface.c ****         CS_2_Write(1);
 312              		.loc 1 149 0
 313 00cc 0120     		movs	r0, #1
 314 00ce FFF7FEFF 		bl	CS_2_Write
 315              	.LVL50:
 316              	.L20:
 150:SPI_Interface.c ****     }
 151:SPI_Interface.c ****         	
 152:SPI_Interface.c ****         /* Clear */
 153:SPI_Interface.c ****         SPIM_1_ClearFIFO();
 317              		.loc 1 153 0
 318 00d2 FFF7FEFF 		bl	SPIM_1_ClearFIFO
 319              	.LVL51:
 154:SPI_Interface.c ****         SPIM_1_ClearRxBuffer();
 320              		.loc 1 154 0
 321 00d6 FFF7FEFF 		bl	SPIM_1_ClearRxBuffer
 322              	.LVL52:
 155:SPI_Interface.c ****         SPIM_1_ClearTxBuffer();
 323              		.loc 1 155 0
 324 00da FFF7FEFF 		bl	SPIM_1_ClearTxBuffer
 325              	.LVL53:
 156:SPI_Interface.c **** }
 326              		.loc 1 156 0
 327 00de 02B0     		add	sp, sp, #8
 328              		.cfi_def_cfa_offset 32
 329              		@ sp needed
 330 00e0 BDE8F087 		pop	{r4, r5, r6, r7, r8, r9, r10, pc}
 331              		.cfi_endproc
 332              	.LFE3:
 333              		.size	SPI_Interface_Multi_RW, .-SPI_Interface_Multi_RW
 334              		.text
 335              	.Letext0:
 336              		.file 2 "c:\\program files (x86)\\cypress\\psoc creator\\4.3\\psoc creator\\import\\gnu\\arm\\5.4.
 337              		.file 3 "c:\\program files (x86)\\cypress\\psoc creator\\4.3\\psoc creator\\import\\gnu\\arm\\5.4.
 338              		.file 4 "Generated_Source\\PSoC5/cytypes.h"
 339              		.file 5 "Generated_Source\\PSoC5/CS_1.h"
 340              		.file 6 "Generated_Source\\PSoC5/SPIM_1.h"
 341              		.file 7 "Generated_Source\\PSoC5/CS_2.h"