ARM GAS  C:\Users\noemi\AppData\Local\Temp\cc5FyfDC.s 			page 1


   1              		.syntax unified
   2              		.cpu cortex-m3
   3              		.fpu softvfp
   4              		.eabi_attribute 20, 1
   5              		.eabi_attribute 21, 1
   6              		.eabi_attribute 23, 3
   7              		.eabi_attribute 24, 1
   8              		.eabi_attribute 25, 1
   9              		.eabi_attribute 26, 1
  10              		.eabi_attribute 30, 1
  11              		.eabi_attribute 34, 1
  12              		.eabi_attribute 18, 4
  13              		.thumb
  14              		.syntax unified
  15              		.file	"main.c"
  16              		.text
  17              	.Ltext0:
  18              		.cfi_sections	.debug_frame
  19              		.section	.text.main,"ax",%progbits
  20              		.align	2
  21              		.global	main
  22              		.thumb
  23              		.thumb_func
  24              		.type	main, %function
  25              	main:
  26              	.LFB64:
  27              		.file 1 "main.c"
   1:main.c        **** /* ========================================
   2:main.c        ****  *
   3:main.c        ****  * Copyright YOUR COMPANY, THE YEAR
   4:main.c        ****  * All Rights Reserved
   5:main.c        ****  * UNPUBLISHED, LICENSED SOFTWARE.
   6:main.c        ****  *
   7:main.c        ****  * CONFIDENTIAL AND PROPRIETARY INFORMATION
   8:main.c        ****  * WHICH IS THE PROPERTY OF your company.
   9:main.c        ****  *
  10:main.c        ****  * ========================================
  11:main.c        **** */
  12:main.c        **** #include "project.h"
  13:main.c        **** #include "LIS3DH.h"
  14:main.c        **** #include "LIS3DH_SPI.h"
  15:main.c        **** #include "SPI_Interface.h"
  16:main.c        **** #include <stdio.h>
  17:main.c        **** #include <string.h>
  18:main.c        **** #include <stdlib.h>
  19:main.c        **** #include "InterruptRoutines.h"
  20:main.c        **** #include "RGBLedDriver.h"
  21:main.c        **** 
  22:main.c        **** #define UART_1_PutBuffer UART_1_PutString(bufferUART)
  23:main.c        **** #define DATA_SIZE 6
  24:main.c        **** #define DATA_BYTES 6
  25:main.c        **** #define CONVERSION_FACTOR_DIGIT_MG 8
  26:main.c        **** #define TRANSMIT_BUFFER_SIZE 8
  27:main.c        **** 
  28:main.c        **** // New value check
  29:main.c        **** #define LIS3DH_STATUS_REG_NEW_VALUE 0x08 //00001000
  30:main.c        **** 
ARM GAS  C:\Users\noemi\AppData\Local\Temp\cc5FyfDC.s 			page 2


  31:main.c        **** #define CONVERSION_MG_RGB 255/4000
  32:main.c        **** char bufferUART[100];
  33:main.c        **** 
  34:main.c        **** int main(void)
  35:main.c        **** {
  28              		.loc 1 35 0
  29              		.cfi_startproc
  30              		@ args = 0, pretend = 0, frame = 0
  31              		@ frame_needed = 0, uses_anonymous_args = 0
  32 0000 38B5     		push	{r3, r4, r5, lr}
  33              		.cfi_def_cfa_offset 16
  34              		.cfi_offset 3, -16
  35              		.cfi_offset 4, -12
  36              		.cfi_offset 5, -8
  37              		.cfi_offset 14, -4
  36:main.c        ****     CyGlobalIntEnable; /* Enable global interrupts. */
  38              		.loc 1 36 0
  39              		.syntax unified
  40              	@ 36 "main.c" 1
  41 0002 62B6     		CPSIE   i
  42              	@ 0 "" 2
  37:main.c        ****     /*          INITIALIZATION          */
  38:main.c        ****     
  39:main.c        ****     UART_1_Start();
  43              		.loc 1 39 0
  44              		.thumb
  45              		.syntax unified
  46 0004 FFF7FEFF 		bl	UART_1_Start
  47              	.LVL0:
  40:main.c        ****     
  41:main.c        ****     /* Start SPI Master */
  42:main.c        ****     SPIM_1_Start();
  48              		.loc 1 42 0
  49 0008 FFF7FEFF 		bl	SPIM_1_Start
  50              	.LVL1:
  43:main.c        ****     RGBLed_Start();
  51              		.loc 1 43 0
  52 000c FFF7FEFF 		bl	RGBLed_Start
  53              	.LVL2:
  44:main.c        ****     CyDelay(10);
  54              		.loc 1 44 0
  55 0010 0A20     		movs	r0, #10
  56 0012 FFF7FEFF 		bl	CyDelay
  57              	.LVL3:
  45:main.c        ****     
  46:main.c        ****     uint8_t data_read;
  47:main.c        ****     
  48:main.c        ****     /*********************WHO AM I REGISTER*******************/
  49:main.c        ****     data_read = LIS3DH_readByte(LIS3DH_WHO_AM_I_REG_ADDR);
  58              		.loc 1 49 0
  59 0016 0F20     		movs	r0, #15
  60 0018 FFF7FEFF 		bl	LIS3DH_readByte
  61              	.LVL4:
  50:main.c        ****     sprintf(bufferUART, "** LIS3DH WHO I AM REGISTER = 0x%02X\r\n", data_read);
  62              		.loc 1 50 0
  63 001c 734C     		ldr	r4, .L6
  64 001e 0246     		mov	r2, r0
ARM GAS  C:\Users\noemi\AppData\Local\Temp\cc5FyfDC.s 			page 3


  65 0020 7349     		ldr	r1, .L6+4
  66 0022 2046     		mov	r0, r4
  67              	.LVL5:
  68 0024 FFF7FEFF 		bl	sprintf
  69              	.LVL6:
  51:main.c        ****     UART_1_PutBuffer;
  70              		.loc 1 51 0
  71 0028 2046     		mov	r0, r4
  72 002a FFF7FEFF 		bl	UART_1_PutString
  73              	.LVL7:
  52:main.c        ****     
  53:main.c        ****     /*********************CONTROL REGISTER 1*******************/
  54:main.c        ****     /*          settings: 0x57                                */
  55:main.c        ****     /*          0b00100111                                    */
  56:main.c        ****     /*          frequency=10 Hz                               */
  57:main.c        ****     /*          x,y,z enable                                  */
  58:main.c        ****     /*          normal/high resolution mode                   */
  59:main.c        ****     
  60:main.c        ****     LIS3DH_writeByte(LIS3DH_CTRL_REG1, 0x57);
  74              		.loc 1 60 0
  75 002e 5721     		movs	r1, #87
  76 0030 2020     		movs	r0, #32
  77 0032 FFF7FEFF 		bl	LIS3DH_writeByte
  78              	.LVL8:
  61:main.c        ****     data_read = LIS3DH_readByte(LIS3DH_CTRL_REG1);
  79              		.loc 1 61 0
  80 0036 2020     		movs	r0, #32
  81 0038 FFF7FEFF 		bl	LIS3DH_readByte
  82              	.LVL9:
  62:main.c        ****     sprintf(bufferUART, "** LIS3DH CTRL REGISTER 1= 0x%02X\r\n", data_read);
  83              		.loc 1 62 0
  84 003c 0246     		mov	r2, r0
  85 003e 6D49     		ldr	r1, .L6+8
  86 0040 2046     		mov	r0, r4
  87              	.LVL10:
  88 0042 FFF7FEFF 		bl	sprintf
  89              	.LVL11:
  63:main.c        ****     UART_1_PutBuffer;
  90              		.loc 1 63 0
  91 0046 2046     		mov	r0, r4
  92 0048 FFF7FEFF 		bl	UART_1_PutString
  93              	.LVL12:
  64:main.c        ****     
  65:main.c        ****     /*********************CONTROL REGISTER 4*******************/
  66:main.c        ****     /*          settings:  0x10                               */
  67:main.c        ****     /*          CTRL4[0]=0 SPI with 4 wires (not 3)           */
  68:main.c        ****     /*          CTRL4[4:5]= FULL SCALE RANGE. e.g. 01 +-4g    */
  69:main.c        ****     /*          CTRL4[3]=RESOLUTION. normal 0                 */
  70:main.c        ****     /*                                                        */
  71:main.c        ****     LIS3DH_writeByte(LIS3DH_CTRL_REG4, 0x00);
  94              		.loc 1 71 0
  95 004c 0021     		movs	r1, #0
  96 004e 2320     		movs	r0, #35
  97 0050 FFF7FEFF 		bl	LIS3DH_writeByte
  98              	.LVL13:
  72:main.c        ****     data_read = LIS3DH_readByte(LIS3DH_CTRL_REG4);
  99              		.loc 1 72 0
ARM GAS  C:\Users\noemi\AppData\Local\Temp\cc5FyfDC.s 			page 4


 100 0054 2320     		movs	r0, #35
 101 0056 FFF7FEFF 		bl	LIS3DH_readByte
 102              	.LVL14:
  73:main.c        ****     sprintf(bufferUART, "** LIS3DH CTRL REGISTER 4= 0x%02X\r\n", data_read);
 103              		.loc 1 73 0
 104 005a 0246     		mov	r2, r0
 105 005c 6649     		ldr	r1, .L6+12
 106 005e 2046     		mov	r0, r4
 107              	.LVL15:
 108 0060 FFF7FEFF 		bl	sprintf
 109              	.LVL16:
  74:main.c        ****     UART_1_PutBuffer;
 110              		.loc 1 74 0
 111 0064 2046     		mov	r0, r4
 112 0066 FFF7FEFF 		bl	UART_1_PutString
 113              	.LVL17:
  75:main.c        ****     
  76:main.c        ****     /*********************CONTROL REGISTER 5*******************/
  77:main.c        ****     /*          settings: 0x40                                */
  78:main.c        ****     /*          0b01--0000                                    */
  79:main.c        ****     /*          FIFO enable                                   */
  80:main.c        ****  
  81:main.c        ****     LIS3DH_writeByte(LIS3DH_CTRL_REG5, 0x40);
 114              		.loc 1 81 0
 115 006a 4021     		movs	r1, #64
 116 006c 2420     		movs	r0, #36
 117 006e FFF7FEFF 		bl	LIS3DH_writeByte
 118              	.LVL18:
  82:main.c        ****     data_read = LIS3DH_readByte(LIS3DH_CTRL_REG5);
 119              		.loc 1 82 0
 120 0072 2420     		movs	r0, #36
 121 0074 FFF7FEFF 		bl	LIS3DH_readByte
 122              	.LVL19:
  83:main.c        ****     sprintf(bufferUART, "** LIS3DH CTRL REGISTER 5= 0x%02X\r\n", data_read);
 123              		.loc 1 83 0
 124 0078 0246     		mov	r2, r0
 125 007a 6049     		ldr	r1, .L6+16
 126 007c 2046     		mov	r0, r4
 127              	.LVL20:
 128 007e FFF7FEFF 		bl	sprintf
 129              	.LVL21:
  84:main.c        ****     UART_1_PutBuffer;
 130              		.loc 1 84 0
 131 0082 2046     		mov	r0, r4
 132 0084 FFF7FEFF 		bl	UART_1_PutString
 133              	.LVL22:
  85:main.c        ****     
  86:main.c        ****     /*********************FIFO_CTRL_REG************************/
  87:main.c        ****     /*          settings:  0x41                               */
  88:main.c        ****     /*          0b01000001                                    */
  89:main.c        ****     /*          FIFO mode                                     */
  90:main.c        ****     /*          watermark: 1 sample                           */
  91:main.c        **** 
  92:main.c        ****     LIS3DH_writeByte(LIS3DH_FIFO_CTRL_REG,0x00);
 134              		.loc 1 92 0
 135 0088 0021     		movs	r1, #0
 136 008a 2E20     		movs	r0, #46
ARM GAS  C:\Users\noemi\AppData\Local\Temp\cc5FyfDC.s 			page 5


 137 008c FFF7FEFF 		bl	LIS3DH_writeByte
 138              	.LVL23:
  93:main.c        ****     data_read = LIS3DH_readByte(LIS3DH_FIFO_CTRL_REG);
 139              		.loc 1 93 0
 140 0090 2E20     		movs	r0, #46
 141 0092 FFF7FEFF 		bl	LIS3DH_readByte
 142              	.LVL24:
  94:main.c        ****     sprintf(bufferUART, "** LIS3DH FIFO CTRL REGISTER = 0x%02X\r\n", data_read);
 143              		.loc 1 94 0
 144 0096 5A4D     		ldr	r5, .L6+20
 145 0098 0246     		mov	r2, r0
 146 009a 2946     		mov	r1, r5
 147 009c 2046     		mov	r0, r4
 148              	.LVL25:
 149 009e FFF7FEFF 		bl	sprintf
 150              	.LVL26:
  95:main.c        ****     UART_1_PutBuffer;
 151              		.loc 1 95 0
 152 00a2 2046     		mov	r0, r4
 153 00a4 FFF7FEFF 		bl	UART_1_PutString
 154              	.LVL27:
  96:main.c        ****     
  97:main.c        ****     LIS3DH_writeByte(LIS3DH_FIFO_CTRL_REG,0x42);
 155              		.loc 1 97 0
 156 00a8 4221     		movs	r1, #66
 157 00aa 2E20     		movs	r0, #46
 158 00ac FFF7FEFF 		bl	LIS3DH_writeByte
 159              	.LVL28:
  98:main.c        ****     data_read = LIS3DH_readByte(LIS3DH_FIFO_CTRL_REG);
 160              		.loc 1 98 0
 161 00b0 2E20     		movs	r0, #46
 162 00b2 FFF7FEFF 		bl	LIS3DH_readByte
 163              	.LVL29:
  99:main.c        ****     sprintf(bufferUART, "** LIS3DH FIFO CTRL REGISTER = 0x%02X\r\n", data_read);
 164              		.loc 1 99 0
 165 00b6 0246     		mov	r2, r0
 166 00b8 2946     		mov	r1, r5
 167 00ba 2046     		mov	r0, r4
 168              	.LVL30:
 169 00bc FFF7FEFF 		bl	sprintf
 170              	.LVL31:
 100:main.c        ****     UART_1_PutBuffer;
 171              		.loc 1 100 0
 172 00c0 2046     		mov	r0, r4
 173 00c2 FFF7FEFF 		bl	UART_1_PutString
 174              	.LVL32:
 101:main.c        ****     
 102:main.c        ****     /*********************CONTROL REGISTER 3*******************/
 103:main.c        ****     /*          settings:   0x04                              */
 104:main.c        ****     /*          0b000000100                                   */
 105:main.c        ****     /*          watermark interrupt set                       */
 106:main.c        **** 
 107:main.c        ****     LIS3DH_writeByte(LIS3DH_CTRL_REG3, 0x00);
 175              		.loc 1 107 0
 176 00c6 0021     		movs	r1, #0
 177 00c8 2220     		movs	r0, #34
 178 00ca FFF7FEFF 		bl	LIS3DH_writeByte
ARM GAS  C:\Users\noemi\AppData\Local\Temp\cc5FyfDC.s 			page 6


 179              	.LVL33:
 108:main.c        ****     data_read = LIS3DH_readByte(LIS3DH_CTRL_REG3);
 180              		.loc 1 108 0
 181 00ce 2220     		movs	r0, #34
 182 00d0 FFF7FEFF 		bl	LIS3DH_readByte
 183              	.LVL34:
 109:main.c        ****     sprintf(bufferUART, "** LIS3DH CTRL REGISTER 3= 0x%02X\r\n", data_read);
 184              		.loc 1 109 0
 185 00d4 0246     		mov	r2, r0
 186 00d6 4B49     		ldr	r1, .L6+24
 187 00d8 2046     		mov	r0, r4
 188              	.LVL35:
 189 00da FFF7FEFF 		bl	sprintf
 190              	.LVL36:
 110:main.c        ****     UART_1_PutBuffer;
 191              		.loc 1 110 0
 192 00de 2046     		mov	r0, r4
 193 00e0 FFF7FEFF 		bl	UART_1_PutString
 194              	.LVL37:
 111:main.c        ****     
 112:main.c        ****     /*********************INT1 CFG REGISTER *******************/
 113:main.c        ****     /*          settings:   0x2A                              */
 114:main.c        ****     /*          OR combination                                */
 115:main.c        ****     /*          HIGH event on z y x                           */
 116:main.c        **** 
 117:main.c        ****     LIS3DH_writeByte(LIS3DH_INT1_CFG, 0x00);
 195              		.loc 1 117 0
 196 00e4 0021     		movs	r1, #0
 197 00e6 3020     		movs	r0, #48
 198 00e8 FFF7FEFF 		bl	LIS3DH_writeByte
 199              	.LVL38:
 118:main.c        ****     data_read = LIS3DH_readByte(LIS3DH_INT1_CFG);
 200              		.loc 1 118 0
 201 00ec 3020     		movs	r0, #48
 202 00ee FFF7FEFF 		bl	LIS3DH_readByte
 203              	.LVL39:
 119:main.c        ****     sprintf(bufferUART, "** LIS3DH INT 1 CFG REGISTER= 0x%02X\r\n", data_read);
 204              		.loc 1 119 0
 205 00f2 0246     		mov	r2, r0
 206 00f4 4449     		ldr	r1, .L6+28
 207 00f6 2046     		mov	r0, r4
 208              	.LVL40:
 209 00f8 FFF7FEFF 		bl	sprintf
 210              	.LVL41:
 120:main.c        ****     UART_1_PutBuffer;
 211              		.loc 1 120 0
 212 00fc 2046     		mov	r0, r4
 213 00fe FFF7FEFF 		bl	UART_1_PutString
 214              	.LVL42:
 121:main.c        ****     
 122:main.c        ****     /*********************INT1 THS REGISTER *******************/
 123:main.c        ****     /*          settings:   0x3E                              */
 124:main.c        ****     /*          thresh:2000mg                                 */
 125:main.c        ****  
 126:main.c        ****     LIS3DH_writeByte(LIS3DH_INT1_THS, 0x00);
 215              		.loc 1 126 0
 216 0102 0021     		movs	r1, #0
ARM GAS  C:\Users\noemi\AppData\Local\Temp\cc5FyfDC.s 			page 7


 217 0104 3220     		movs	r0, #50
 218 0106 FFF7FEFF 		bl	LIS3DH_writeByte
 219              	.LVL43:
 127:main.c        ****     data_read = LIS3DH_readByte(LIS3DH_INT1_THS);
 220              		.loc 1 127 0
 221 010a 3220     		movs	r0, #50
 222 010c FFF7FEFF 		bl	LIS3DH_readByte
 223              	.LVL44:
 128:main.c        ****     sprintf(bufferUART, "** LIS3DH INT1 THS REGISTER= 0x%02X\r\n", data_read);
 224              		.loc 1 128 0
 225 0110 0246     		mov	r2, r0
 226 0112 3E49     		ldr	r1, .L6+32
 227 0114 2046     		mov	r0, r4
 228              	.LVL45:
 229 0116 FFF7FEFF 		bl	sprintf
 230              	.LVL46:
 129:main.c        ****     UART_1_PutBuffer;
 231              		.loc 1 129 0
 232 011a 2046     		mov	r0, r4
 233 011c FFF7FEFF 		bl	UART_1_PutString
 234              	.LVL47:
 130:main.c        ****     
 131:main.c        ****     /*******************INT1 DURATION REGISTER ****************/
 132:main.c        ****     /*          settings:   0x05                              */
 133:main.c        ****     /*          thresh:5/ODR=50ms                                 */
 134:main.c        ****  
 135:main.c        ****     LIS3DH_writeByte(LIS3DH_INT1_DURATION, 0x00);
 235              		.loc 1 135 0
 236 0120 0021     		movs	r1, #0
 237 0122 3320     		movs	r0, #51
 238 0124 FFF7FEFF 		bl	LIS3DH_writeByte
 239              	.LVL48:
 136:main.c        ****     data_read = LIS3DH_readByte(LIS3DH_INT1_DURATION);
 240              		.loc 1 136 0
 241 0128 3320     		movs	r0, #51
 242 012a FFF7FEFF 		bl	LIS3DH_readByte
 243              	.LVL49:
 137:main.c        ****     sprintf(bufferUART, "** LIS3DH DURATION REGISTER= 0x%02X\r\n", data_read);
 244              		.loc 1 137 0
 245 012e 0246     		mov	r2, r0
 246 0130 3749     		ldr	r1, .L6+36
 247 0132 2046     		mov	r0, r4
 248              	.LVL50:
 249 0134 FFF7FEFF 		bl	sprintf
 250              	.LVL51:
 138:main.c        ****     UART_1_PutBuffer;
 251              		.loc 1 138 0
 252 0138 2046     		mov	r0, r4
 253 013a FFF7FEFF 		bl	UART_1_PutString
 254              	.LVL52:
 139:main.c        ****  
 140:main.c        ****     /******TEST READ WRITE PAGE************/
 141:main.c        **** //    uint8_t data[3];
 142:main.c        **** //    LIS3DH_readPage(LIS3DH_CTRL_REG1, (uint8_t*)data, 3);
 143:main.c        **** //    sprintf(bufferUART, "** LIS3DH CTRL REGISTER 6=  0x%02X 0x%02X 0x%02X \r\n", data[0], data[1]
 144:main.c        **** //    UART_1_PutBuffer;
 145:main.c        ****     /* Write */
ARM GAS  C:\Users\noemi\AppData\Local\Temp\cc5FyfDC.s 			page 8


 146:main.c        **** //    uint8_t datapage[1];
 147:main.c        **** //    datapage[0]= 0x37;
 148:main.c        **** //    
 149:main.c        **** //    LIS3DH_writePage(LIS3DH_CTRL_REG1, (uint8_t*) datapage, DATA_BYTES);
 150:main.c        **** 
 151:main.c        **** 
 152:main.c        ****     //Variables declaration
 153:main.c        **** //    int8_t AccData[DATA_SIZE];
 154:main.c        ****     int16_t OutAccX;
 155:main.c        ****     int16_t OutAccY;
 156:main.c        ****     int16_t OutAccZ;
 157:main.c        **** //    uint8_t header = 0xA0;
 158:main.c        **** //    uint8_t footer = 0xC0;
 159:main.c        **** //    uint8_t OutArray[TRANSMIT_BUFFER_SIZE];
 160:main.c        ****    
 161:main.c        ****     //Header and footer set up
 162:main.c        **** //    OutArray[0] = header;
 163:main.c        **** //    OutArray[TRANSMIT_BUFFER_SIZE - 1] = footer;
 164:main.c        ****     
 165:main.c        ****     PacketReadyFlag = 0;
 255              		.loc 1 165 0
 256 013e 0022     		movs	r2, #0
 257 0140 344B     		ldr	r3, .L6+40
 258 0142 1A70     		strb	r2, [r3]
 166:main.c        ****     isr_ACC_StartEx(Custom_Pin_ISR);
 259              		.loc 1 166 0
 260 0144 3448     		ldr	r0, .L6+44
 261 0146 FFF7FEFF 		bl	isr_ACC_StartEx
 262              	.LVL53:
 263              	.L4:
 264              	.LBB2:
 167:main.c        ****     
 168:main.c        ****     for(;;)
 169:main.c        ****     {
 170:main.c        ****         //READ LIS3DH STATUS REGISTER: EXPECTED IT CHANGES
 171:main.c        ****         //PROBLEM=IT IS ALWAYS 0X20 (EMPTY)
 172:main.c        **** //        
 173:main.c        ****         data_read = LIS3DH_readByte(LIS3DH_FIFO_SRC_REG);
 265              		.loc 1 173 0
 266 014a 2F20     		movs	r0, #47
 267 014c FFF7FEFF 		bl	LIS3DH_readByte
 268              	.LVL54:
 269 0150 0446     		mov	r4, r0
 270              	.LVL55:
 174:main.c        ****         sprintf(bufferUART, "** LIS3DH FIFO SRC REG= 0x%02X\r\n", data_read);
 271              		.loc 1 174 0
 272 0152 264D     		ldr	r5, .L6
 273 0154 0246     		mov	r2, r0
 274 0156 3149     		ldr	r1, .L6+48
 275 0158 2846     		mov	r0, r5
 276              	.LVL56:
 277 015a FFF7FEFF 		bl	sprintf
 278              	.LVL57:
 175:main.c        ****         UART_1_PutBuffer;
 279              		.loc 1 175 0
 280 015e 2846     		mov	r0, r5
 281 0160 FFF7FEFF 		bl	UART_1_PutString
ARM GAS  C:\Users\noemi\AppData\Local\Temp\cc5FyfDC.s 			page 9


 282              	.LVL58:
 176:main.c        ****         if (data_read&0x80){
 283              		.loc 1 176 0
 284 0164 14F0800F 		tst	r4, #128
 285 0168 22D0     		beq	.L2
 177:main.c        ****             
 178:main.c        ****             LIS3DH_readPage(LIS3DH_OUT_X_L, (uint8_t*) AccData, DATA_BYTES); 
 286              		.loc 1 178 0
 287 016a 2D4C     		ldr	r4, .L6+52
 288 016c 0622     		movs	r2, #6
 289 016e 2146     		mov	r1, r4
 290 0170 2820     		movs	r0, #40
 291 0172 FFF7FEFF 		bl	LIS3DH_readPage
 292              	.LVL59:
 179:main.c        ****             LIS3DH_readPage(LIS3DH_OUT_X_L, (uint8_t*) AccData, DATA_BYTES);
 293              		.loc 1 179 0
 294 0176 0622     		movs	r2, #6
 295 0178 2146     		mov	r1, r4
 296 017a 2820     		movs	r0, #40
 297 017c FFF7FEFF 		bl	LIS3DH_readPage
 298              	.LVL60:
 180:main.c        ****             LIS3DH_readPage(LIS3DH_OUT_X_L, (uint8_t*) AccData, DATA_BYTES);
 299              		.loc 1 180 0
 300 0180 0622     		movs	r2, #6
 301 0182 2146     		mov	r1, r4
 302 0184 2820     		movs	r0, #40
 303 0186 FFF7FEFF 		bl	LIS3DH_readPage
 304              	.LVL61:
 181:main.c        ****             sprintf(bufferUART, "LETTI");
 305              		.loc 1 181 0
 306 018a 264B     		ldr	r3, .L6+56
 307 018c 1868     		ldr	r0, [r3]	@ unaligned
 308 018e 2860     		str	r0, [r5]	@ unaligned
 309 0190 9B88     		ldrh	r3, [r3, #4]	@ unaligned
 310 0192 AB80     		strh	r3, [r5, #4]	@ unaligned
 182:main.c        ****             UART_1_PutBuffer;
 311              		.loc 1 182 0
 312 0194 2846     		mov	r0, r5
 313 0196 FFF7FEFF 		bl	UART_1_PutString
 314              	.LVL62:
 183:main.c        ****             data_read = LIS3DH_readByte(LIS3DH_FIFO_SRC_REG);
 315              		.loc 1 183 0
 316 019a 2F20     		movs	r0, #47
 317 019c FFF7FEFF 		bl	LIS3DH_readByte
 318              	.LVL63:
 184:main.c        ****             sprintf(bufferUART, "** LIS3DH FIFO SRC REG= 0x%02X\r\n", data_read);
 319              		.loc 1 184 0
 320 01a0 0246     		mov	r2, r0
 321 01a2 1E49     		ldr	r1, .L6+48
 322 01a4 2846     		mov	r0, r5
 323              	.LVL64:
 324 01a6 FFF7FEFF 		bl	sprintf
 325              	.LVL65:
 185:main.c        ****             UART_1_PutBuffer;
 326              		.loc 1 185 0
 327 01aa 2846     		mov	r0, r5
 328 01ac FFF7FEFF 		bl	UART_1_PutString
ARM GAS  C:\Users\noemi\AppData\Local\Temp\cc5FyfDC.s 			page 10


 329              	.LVL66:
 330              	.L2:
 186:main.c        ****         }
 187:main.c        ****         
 188:main.c        ****         
 189:main.c        ****         if (PacketReadyFlag){
 331              		.loc 1 189 0
 332 01b0 184B     		ldr	r3, .L6+40
 333 01b2 1B78     		ldrb	r3, [r3]	@ zero_extendqisi2
 334 01b4 13F0FF0F 		tst	r3, #255
 335 01b8 12D0     		beq	.L3
 190:main.c        ****         PacketReadyFlag=0;
 336              		.loc 1 190 0
 337 01ba 0024     		movs	r4, #0
 338 01bc 154B     		ldr	r3, .L6+40
 339 01be 1C70     		strb	r4, [r3]
 191:main.c        ****         sprintf(bufferUART, "ciao\r\n");
 340              		.loc 1 191 0
 341 01c0 0A4B     		ldr	r3, .L6
 342 01c2 194A     		ldr	r2, .L6+60
 343 01c4 1068     		ldr	r0, [r2]	@ unaligned
 344 01c6 1860     		str	r0, [r3]	@ unaligned
 345 01c8 9188     		ldrh	r1, [r2, #4]	@ unaligned
 346 01ca 9279     		ldrb	r2, [r2, #6]	@ zero_extendqisi2
 347 01cc 9980     		strh	r1, [r3, #4]	@ unaligned
 348 01ce 9A71     		strb	r2, [r3, #6]
 192:main.c        ****         UART_1_PutBuffer;
 349              		.loc 1 192 0
 350 01d0 1846     		mov	r0, r3
 351 01d2 FFF7FEFF 		bl	UART_1_PutString
 352              	.LVL67:
 193:main.c        ****         RGBLed_WriteColor(255, 0, 0);
 353              		.loc 1 193 0
 354 01d6 2246     		mov	r2, r4
 355 01d8 2146     		mov	r1, r4
 356 01da FF20     		movs	r0, #255
 357 01dc FFF7FEFF 		bl	RGBLed_WriteColor
 358              	.LVL68:
 359              	.L3:
 194:main.c        ****         
 195:main.c        ****         }
 196:main.c        **** 
 197:main.c        **** //        uint8_t status_register = LIS3DH_readByte(LIS3DH_STATUS_REG);
 198:main.c        **** //        if (((status_register) & (LIS3DH_STATUS_REG_NEW_VALUE))){
 199:main.c        **** //            
 200:main.c        **** //            LIS3DH_readPage(LIS3DH_OUT_X_L, (uint8_t*) AccData, DATA_BYTES);
 201:main.c        **** //        
 202:main.c        ****             OutAccX = ((int16)((AccData[0]) | ((AccData[1])<<8))>>6)*CONVERSION_FACTOR_DIGIT_MG;
 203:main.c        ****             OutAccY = ((int16)((AccData[2]) | ((AccData[3])<<8))>>6)*CONVERSION_FACTOR_DIGIT_MG;
 204:main.c        ****             OutAccZ = ((int16)((AccData[4]) | ((AccData[5])<<8))>>6)*CONVERSION_FACTOR_DIGIT_MG;
 205:main.c        ****             
 206:main.c        ****             //data preparing for UART serial Communication
 207:main.c        **** //            OutArray[1] = (uint8_t)(OutAccX & 0xFF); 
 208:main.c        **** //            OutArray[2] = (uint8_t)(OutAccX >> 8);
 209:main.c        **** //            OutArray[3] = (uint8_t)(OutAccY & 0xFF);
 210:main.c        **** //            OutArray[4] = (uint8_t)(OutAccY >> 8);
 211:main.c        **** //            OutArray[5] = (uint8_t)(OutAccZ & 0xFF);
ARM GAS  C:\Users\noemi\AppData\Local\Temp\cc5FyfDC.s 			page 11


 212:main.c        **** //            OutArray[6] = (uint8_t)(OutAccZ >> 8);
 213:main.c        **** //            
 214:main.c        **** //            UART_1_PutArray(OutArray, TRANSMIT_BUFFER_SIZE);
 215:main.c        **** //        }
 216:main.c        ****         
 217:main.c        ****               OutAccX=-1000;
 218:main.c        ****               OutAccY=0;
 219:main.c        ****               OutAccZ=-2000;
 220:main.c        ****             
 221:main.c        ****             /* RGB VALUE DEFINITION BASED ON ACCELERATION DATA*/
 222:main.c        ****             
 223:main.c        ****               uint8_t red_x, green_y, blue_z;
 224:main.c        ****               //int abs (int x);
 225:main.c        ****               red_x= (uint8_t)(abs(OutAccX*CONVERSION_MG_RGB));
 226:main.c        ****               green_y=(uint8_t)(abs(OutAccY*CONVERSION_MG_RGB));
 227:main.c        ****               blue_z=(uint8_t)(abs(OutAccZ*CONVERSION_MG_RGB));
 228:main.c        ****               RGBLed_WriteColor(red_x, green_y, blue_z);
 360              		.loc 1 228 0
 361 01e0 7F22     		movs	r2, #127
 362 01e2 0021     		movs	r1, #0
 363 01e4 3F20     		movs	r0, #63
 364 01e6 FFF7FEFF 		bl	RGBLed_WriteColor
 365              	.LVL69:
 366              	.LBE2:
 229:main.c        **** 
 230:main.c        **** 
 231:main.c        ****     }
 367              		.loc 1 231 0
 368 01ea AEE7     		b	.L4
 369              	.L7:
 370              		.align	2
 371              	.L6:
 372 01ec 00000000 		.word	bufferUART
 373 01f0 00000000 		.word	.LC0
 374 01f4 28000000 		.word	.LC1
 375 01f8 4C000000 		.word	.LC2
 376 01fc 70000000 		.word	.LC3
 377 0200 94000000 		.word	.LC4
 378 0204 BC000000 		.word	.LC5
 379 0208 E0000000 		.word	.LC6
 380 020c 08010000 		.word	.LC7
 381 0210 30010000 		.word	.LC8
 382 0214 00000000 		.word	PacketReadyFlag
 383 0218 00000000 		.word	Custom_Pin_ISR
 384 021c 58010000 		.word	.LC9
 385 0220 00000000 		.word	AccData
 386 0224 7C010000 		.word	.LC10
 387 0228 84010000 		.word	.LC11
 388              		.cfi_endproc
 389              	.LFE64:
 390              		.size	main, .-main
 391              		.comm	bufferUART,100,4
 392              		.comm	PacketReadyFlag,1,1
 393              		.comm	AccData,6,4
 394              		.section	.rodata.str1.4,"aMS",%progbits,1
 395              		.align	2
 396              	.LC0:
ARM GAS  C:\Users\noemi\AppData\Local\Temp\cc5FyfDC.s 			page 12


 397 0000 2A2A204C 		.ascii	"** LIS3DH WHO I AM REGISTER = 0x%02X\015\012\000"
 397      49533344 
 397      48205748 
 397      4F204920 
 397      414D2052 
 398 0027 00       		.space	1
 399              	.LC1:
 400 0028 2A2A204C 		.ascii	"** LIS3DH CTRL REGISTER 1= 0x%02X\015\012\000"
 400      49533344 
 400      48204354 
 400      524C2052 
 400      45474953 
 401              	.LC2:
 402 004c 2A2A204C 		.ascii	"** LIS3DH CTRL REGISTER 4= 0x%02X\015\012\000"
 402      49533344 
 402      48204354 
 402      524C2052 
 402      45474953 
 403              	.LC3:
 404 0070 2A2A204C 		.ascii	"** LIS3DH CTRL REGISTER 5= 0x%02X\015\012\000"
 404      49533344 
 404      48204354 
 404      524C2052 
 404      45474953 
 405              	.LC4:
 406 0094 2A2A204C 		.ascii	"** LIS3DH FIFO CTRL REGISTER = 0x%02X\015\012\000"
 406      49533344 
 406      48204649 
 406      464F2043 
 406      54524C20 
 407              	.LC5:
 408 00bc 2A2A204C 		.ascii	"** LIS3DH CTRL REGISTER 3= 0x%02X\015\012\000"
 408      49533344 
 408      48204354 
 408      524C2052 
 408      45474953 
 409              	.LC6:
 410 00e0 2A2A204C 		.ascii	"** LIS3DH INT 1 CFG REGISTER= 0x%02X\015\012\000"
 410      49533344 
 410      4820494E 
 410      54203120 
 410      43464720 
 411 0107 00       		.space	1
 412              	.LC7:
 413 0108 2A2A204C 		.ascii	"** LIS3DH INT1 THS REGISTER= 0x%02X\015\012\000"
 413      49533344 
 413      4820494E 
 413      54312054 
 413      48532052 
 414 012e 0000     		.space	2
 415              	.LC8:
 416 0130 2A2A204C 		.ascii	"** LIS3DH DURATION REGISTER= 0x%02X\015\012\000"
 416      49533344 
 416      48204455 
 416      52415449 
 416      4F4E2052 
 417 0156 0000     		.space	2
ARM GAS  C:\Users\noemi\AppData\Local\Temp\cc5FyfDC.s 			page 13


 418              	.LC9:
 419 0158 2A2A204C 		.ascii	"** LIS3DH FIFO SRC REG= 0x%02X\015\012\000"
 419      49533344 
 419      48204649 
 419      464F2053 
 419      52432052 
 420 0179 000000   		.space	3
 421              	.LC10:
 422 017c 4C455454 		.ascii	"LETTI\000"
 422      4900
 423 0182 0000     		.space	2
 424              	.LC11:
 425 0184 6369616F 		.ascii	"ciao\015\012\000"
 425      0D0A00
 426              		.text
 427              	.Letext0:
 428              		.file 2 "c:\\program files (x86)\\cypress\\psoc creator\\4.3\\psoc creator\\import\\gnu\\arm\\5.4.
 429              		.file 3 "c:\\program files (x86)\\cypress\\psoc creator\\4.3\\psoc creator\\import\\gnu\\arm\\5.4.
 430              		.file 4 "Generated_Source\\PSoC5/cytypes.h"
 431              		.file 5 "Generated_Source\\PSoC5/core_cm3.h"
 432              		.file 6 "InterruptRoutines.h"
 433              		.file 7 "LIS3DH_SPI.h"
 434              		.file 8 "c:\\program files (x86)\\cypress\\psoc creator\\4.3\\psoc creator\\import\\gnu\\arm\\5.4.
 435              		.file 9 "Generated_Source\\PSoC5/UART_1.h"
 436              		.file 10 "RGBLedDriver.h"
 437              		.file 11 "Generated_Source\\PSoC5/SPIM_1.h"
 438              		.file 12 "Generated_Source\\PSoC5/CyLib.h"
 439              		.file 13 "Generated_Source\\PSoC5/isr_ACC.h"